ARM GAS  c:\Tmp\ccoIAPBg.s 			page 1


   1              		.syntax unified
   2              		.cpu cortex-m4
   3              		.eabi_attribute 27, 3
   4              		.eabi_attribute 28, 1
   5              		.fpu fpv4-sp-d16
   6              		.eabi_attribute 20, 1
   7              		.eabi_attribute 21, 1
   8              		.eabi_attribute 23, 3
   9              		.eabi_attribute 24, 1
  10              		.eabi_attribute 25, 1
  11              		.eabi_attribute 26, 1
  12              		.eabi_attribute 30, 6
  13              		.eabi_attribute 34, 1
  14              		.eabi_attribute 18, 4
  15              		.thumb
  16              		.file	"accel.c"
  17              		.text
  18              	.Ltext0:
  19              		.cfi_sections	.debug_frame
  20              		.section	.text.initAccel,"ax",%progbits
  21              		.align	2
  22              		.p2align 4,,15
  23              		.global	initAccel
  24              		.thumb
  25              		.thumb_func
  26              		.type	initAccel, %function
  27              	initAccel:
  28              	.LFB118:
  29              		.file 1 "accel.c"
  30              		.loc 1 22 0
  31              		.cfi_startproc
  32              		@ args = 0, pretend = 0, frame = 0
  33              		@ frame_needed = 0, uses_anonymous_args = 0
  34 0000 08B5     		push	{r3, lr}
  35              		.cfi_def_cfa_offset 8
  36              		.cfi_offset 3, -8
  37              		.cfi_offset 14, -4
  38              		.loc 1 24 0
  39 0002 284B     		ldr	r3, .L2
  40 0004 274A     		ldr	r2, .L2
  41 0006 526C     		ldr	r2, [r2, #68]
  42 0008 42F48052 		orr	r2, r2, #4096
  43 000c 5A64     		str	r2, [r3, #68]
  44              		.loc 1 28 0
  45 000e 264B     		ldr	r3, .L2+4
  46 0010 254A     		ldr	r2, .L2+4
  47 0012 1288     		ldrh	r2, [r2]	@ movhi
  48 0014 92B2     		uxth	r2, r2
  49 0016 42F00202 		orr	r2, r2, #2
  50 001a 92B2     		uxth	r2, r2
  51 001c 1A80     		strh	r2, [r3]	@ movhi
  52              		.loc 1 29 0
  53 001e 224B     		ldr	r3, .L2+4
  54 0020 214A     		ldr	r2, .L2+4
  55 0022 1288     		ldrh	r2, [r2]	@ movhi
  56 0024 92B2     		uxth	r2, r2
  57 0026 42F00102 		orr	r2, r2, #1
ARM GAS  c:\Tmp\ccoIAPBg.s 			page 2


  58 002a 92B2     		uxth	r2, r2
  59 002c 1A80     		strh	r2, [r3]	@ movhi
  60              		.loc 1 32 0
  61 002e 1E4B     		ldr	r3, .L2+4
  62 0030 1D4A     		ldr	r2, .L2+4
  63 0032 1288     		ldrh	r2, [r2]	@ movhi
  64 0034 92B2     		uxth	r2, r2
  65 0036 22F40062 		bic	r2, r2, #2048
  66 003a 92B2     		uxth	r2, r2
  67 003c 1A80     		strh	r2, [r3]	@ movhi
  68              		.loc 1 35 0
  69 003e 1A4B     		ldr	r3, .L2+4
  70 0040 194A     		ldr	r2, .L2+4
  71 0042 1288     		ldrh	r2, [r2]	@ movhi
  72 0044 92B2     		uxth	r2, r2
  73 0046 92B2     		uxth	r2, r2
  74 0048 22F03802 		bic	r2, r2, #56
  75 004c 92B2     		uxth	r2, r2
  76 004e 42F02002 		orr	r2, r2, #32
  77 0052 92B2     		uxth	r2, r2
  78 0054 92B2     		uxth	r2, r2
  79 0056 1A80     		strh	r2, [r3]	@ movhi
  80              		.loc 1 38 0
  81 0058 134B     		ldr	r3, .L2+4
  82 005a 134A     		ldr	r2, .L2+4
  83 005c 1288     		ldrh	r2, [r2]	@ movhi
  84 005e 92B2     		uxth	r2, r2
  85 0060 42F40072 		orr	r2, r2, #512
  86 0064 92B2     		uxth	r2, r2
  87 0066 1A80     		strh	r2, [r3]	@ movhi
  88              		.loc 1 39 0
  89 0068 0F4B     		ldr	r3, .L2+4
  90 006a 0F4A     		ldr	r2, .L2+4
  91 006c 1288     		ldrh	r2, [r2]	@ movhi
  92 006e 92B2     		uxth	r2, r2
  93 0070 42F48072 		orr	r2, r2, #256
  94 0074 92B2     		uxth	r2, r2
  95 0076 1A80     		strh	r2, [r3]	@ movhi
  96              		.loc 1 45 0
  97 0078 0B4B     		ldr	r3, .L2+4
  98 007a 0B4A     		ldr	r2, .L2+4
  99 007c 1288     		ldrh	r2, [r2]	@ movhi
 100 007e 92B2     		uxth	r2, r2
 101 0080 42F04002 		orr	r2, r2, #64
 102 0084 92B2     		uxth	r2, r2
 103 0086 1A80     		strh	r2, [r3]	@ movhi
 104              		.loc 1 46 0
 105 0088 074B     		ldr	r3, .L2+4
 106 008a 074A     		ldr	r2, .L2+4
 107 008c 1288     		ldrh	r2, [r2]	@ movhi
 108 008e 92B2     		uxth	r2, r2
 109 0090 42F00402 		orr	r2, r2, #4
 110 0094 92B2     		uxth	r2, r2
 111 0096 1A80     		strh	r2, [r3]	@ movhi
 112              		.loc 1 49 0
 113 0098 2020     		movs	r0, #32
 114 009a 2721     		movs	r1, #39
ARM GAS  c:\Tmp\ccoIAPBg.s 			page 3


 115 009c FFF7FEFF 		bl	writeAccel
 116              		.loc 1 51 0
 117 00a0 08BD     		pop	{r3, pc}
 118              	.L3:
 119 00a2 00BF     		.align	2
 120              	.L2:
 121 00a4 00380240 		.word	1073887232
 122 00a8 00300140 		.word	1073819648
 123              		.cfi_endproc
 124              	.LFE118:
 125              		.size	initAccel, .-initAccel
 126 00ac AFF30080 		.section	.text.writeAccel,"ax",%progbits
 127              		.align	2
 128              		.p2align 4,,15
 129              		.global	writeAccel
 130              		.thumb
 131              		.thumb_func
 132              		.type	writeAccel, %function
 133              	writeAccel:
 134              	.LFB119:
 135              		.loc 1 54 0
 136              		.cfi_startproc
 137              		@ args = 0, pretend = 0, frame = 8
 138              		@ frame_needed = 0, uses_anonymous_args = 0
 139 0000 00B5     		push	{lr}
 140              		.cfi_def_cfa_offset 4
 141              		.cfi_offset 14, -4
 142 0002 83B0     		sub	sp, sp, #12
 143              		.cfi_def_cfa_offset 16
 144 0004 0190     		str	r0, [sp, #4]
 145 0006 0091     		str	r1, [sp]
 146              		.loc 1 55 0
 147 0008 019B     		ldr	r3, [sp, #4]
 148 000a 03F03F03 		and	r3, r3, #63
 149 000e 0193     		str	r3, [sp, #4]
 150              		.loc 1 57 0
 151 0010 019B     		ldr	r3, [sp, #4]
 152 0012 0E2B     		cmp	r3, #14
 153 0014 00DC     		bgt	.L5
 154              		.loc 1 57 0 is_stmt 0 discriminator 1
 155 0016 3FE0     		b	.L4
 156              	.L5:
 157              		.loc 1 58 0 is_stmt 1
 158 0018 019B     		ldr	r3, [sp, #4]
 159 001a 1F2B     		cmp	r3, #31
 160 001c 03DC     		bgt	.L7
 161              		.loc 1 58 0 is_stmt 0 discriminator 1
 162 001e 019B     		ldr	r3, [sp, #4]
 163 0020 0F2B     		cmp	r3, #15
 164 0022 00DD     		ble	.L7
 165 0024 38E0     		b	.L4
 166              	.L7:
 167              		.loc 1 59 0 is_stmt 1
 168 0026 019B     		ldr	r3, [sp, #4]
 169 0028 262B     		cmp	r3, #38
 170 002a 03DC     		bgt	.L8
 171              		.loc 1 59 0 is_stmt 0 discriminator 1
ARM GAS  c:\Tmp\ccoIAPBg.s 			page 4


 172 002c 019B     		ldr	r3, [sp, #4]
 173 002e 232B     		cmp	r3, #35
 174 0030 00DD     		ble	.L8
 175 0032 31E0     		b	.L4
 176              	.L8:
 177              		.loc 1 60 0 is_stmt 1
 178 0034 019B     		ldr	r3, [sp, #4]
 179 0036 2F2B     		cmp	r3, #47
 180 0038 03DC     		bgt	.L9
 181              		.loc 1 60 0 is_stmt 0 discriminator 1
 182 003a 019B     		ldr	r3, [sp, #4]
 183 003c 2D2B     		cmp	r3, #45
 184 003e 00DD     		ble	.L9
 185 0040 2AE0     		b	.L4
 186              	.L9:
 187              		.loc 1 62 0 is_stmt 1
 188 0042 019B     		ldr	r3, [sp, #4]
 189 0044 292B     		cmp	r3, #41
 190 0046 05D0     		beq	.L10
 191              		.loc 1 62 0 is_stmt 0 discriminator 2
 192 0048 019B     		ldr	r3, [sp, #4]
 193 004a 2B2B     		cmp	r3, #43
 194 004c 02D0     		beq	.L10
 195              		.loc 1 62 0 discriminator 1
 196 004e 019B     		ldr	r3, [sp, #4]
 197 0050 2D2B     		cmp	r3, #45
 198 0052 00D1     		bne	.L11
 199              	.L10:
 200 0054 20E0     		b	.L4
 201              	.L11:
 202              		.loc 1 65 0 is_stmt 1
 203 0056 124B     		ldr	r3, .L14
 204 0058 0822     		movs	r2, #8
 205 005a 5A83     		strh	r2, [r3, #26]	@ movhi
 206              		.loc 1 68 0
 207 005c 114B     		ldr	r3, .L14+4
 208 005e 019A     		ldr	r2, [sp, #4]
 209 0060 92B2     		uxth	r2, r2
 210 0062 9A81     		strh	r2, [r3, #12]	@ movhi
 211              		.loc 1 71 0
 212 0064 0220     		movs	r0, #2
 213 0066 FFF7FEFF 		bl	gptDelayUs
 214              		.loc 1 74 0
 215 006a 00BF     		nop
 216              	.L12:
 217              		.loc 1 74 0 is_stmt 0 discriminator 1
 218 006c 0D4B     		ldr	r3, .L14+4
 219 006e 1B89     		ldrh	r3, [r3, #8]	@ movhi
 220 0070 9BB2     		uxth	r3, r3
 221 0072 03F00103 		and	r3, r3, #1
 222 0076 002B     		cmp	r3, #0
 223 0078 F8D0     		beq	.L12
 224              		.loc 1 76 0 is_stmt 1
 225 007a 0A4B     		ldr	r3, .L14+4
 226 007c 009A     		ldr	r2, [sp]
 227 007e 92B2     		uxth	r2, r2
 228 0080 9A81     		strh	r2, [r3, #12]	@ movhi
ARM GAS  c:\Tmp\ccoIAPBg.s 			page 5


 229              		.loc 1 79 0
 230 0082 00BF     		nop
 231              	.L13:
 232              		.loc 1 79 0 is_stmt 0 discriminator 1
 233 0084 074B     		ldr	r3, .L14+4
 234 0086 1B89     		ldrh	r3, [r3, #8]	@ movhi
 235 0088 9BB2     		uxth	r3, r3
 236 008a 03F00103 		and	r3, r3, #1
 237 008e 002B     		cmp	r3, #0
 238 0090 F8D0     		beq	.L13
 239              		.loc 1 82 0 is_stmt 1
 240 0092 034B     		ldr	r3, .L14
 241 0094 0822     		movs	r2, #8
 242 0096 1A83     		strh	r2, [r3, #24]	@ movhi
 243              	.L4:
 244              		.loc 1 83 0
 245 0098 03B0     		add	sp, sp, #12
 246              		@ sp needed
 247 009a 5DF804FB 		ldr	pc, [sp], #4
 248              	.L15:
 249 009e 00BF     		.align	2
 250              	.L14:
 251 00a0 00100240 		.word	1073876992
 252 00a4 00300140 		.word	1073819648
 253              		.cfi_endproc
 254              	.LFE119:
 255              		.size	writeAccel, .-writeAccel
 256 00a8 AFF30080 		.section	.text.visualInclination,"ax",%progbits
 256      AFF30080 
 257              		.align	2
 258              		.p2align 4,,15
 259              		.global	visualInclination
 260              		.thumb
 261              		.thumb_func
 262              		.type	visualInclination, %function
 263              	visualInclination:
 264              	.LFB120:
 265              		.loc 1 86 0
 266              		.cfi_startproc
 267              		@ args = 0, pretend = 0, frame = 40
 268              		@ frame_needed = 0, uses_anonymous_args = 0
 269 0000 00B5     		push	{lr}
 270              		.cfi_def_cfa_offset 4
 271              		.cfi_offset 14, -4
 272 0002 8BB0     		sub	sp, sp, #44
 273              		.cfi_def_cfa_offset 48
 274              		.loc 1 89 0
 275 0004 6423     		movs	r3, #100
 276 0006 0293     		str	r3, [sp, #8]
 277              		.loc 1 90 0
 278 0008 6FF02603 		mvn	r3, #38
 279 000c 0193     		str	r3, [sp, #4]
 280              		.loc 1 91 0
 281 000e 2723     		movs	r3, #39
 282 0010 0093     		str	r3, [sp]
 283              	.L23:
 284              		.loc 1 93 0
ARM GAS  c:\Tmp\ccoIAPBg.s 			page 6


 285 0012 0023     		movs	r3, #0
 286 0014 0993     		str	r3, [sp, #36]
 287              		.loc 1 94 0
 288 0016 0023     		movs	r3, #0
 289 0018 0893     		str	r3, [sp, #32]
 290              		.loc 1 97 0
 291 001a 0023     		movs	r3, #0
 292 001c 0393     		str	r3, [sp, #12]
 293 001e 12E0     		b	.L17
 294              	.L18:
 295              		.loc 1 98 0 discriminator 2
 296 0020 2920     		movs	r0, #41
 297 0022 0121     		movs	r1, #1
 298 0024 FFF7FEFF 		bl	readAccel
 299 0028 0346     		mov	r3, r0
 300 002a 099A     		ldr	r2, [sp, #36]
 301 002c 1344     		add	r3, r3, r2
 302 002e 0993     		str	r3, [sp, #36]
 303              		.loc 1 99 0 discriminator 2
 304 0030 2B20     		movs	r0, #43
 305 0032 0121     		movs	r1, #1
 306 0034 FFF7FEFF 		bl	readAccel
 307 0038 0346     		mov	r3, r0
 308 003a 089A     		ldr	r2, [sp, #32]
 309 003c 1344     		add	r3, r3, r2
 310 003e 0893     		str	r3, [sp, #32]
 311              		.loc 1 97 0 discriminator 2
 312 0040 039B     		ldr	r3, [sp, #12]
 313 0042 0133     		adds	r3, r3, #1
 314 0044 0393     		str	r3, [sp, #12]
 315              	.L17:
 316              		.loc 1 97 0 is_stmt 0 discriminator 1
 317 0046 029A     		ldr	r2, [sp, #8]
 318 0048 039B     		ldr	r3, [sp, #12]
 319 004a 9A42     		cmp	r2, r3
 320 004c E8D8     		bhi	.L18
 321              		.loc 1 101 0 is_stmt 1
 322 004e 099A     		ldr	r2, [sp, #36]
 323 0050 029B     		ldr	r3, [sp, #8]
 324 0052 92FBF3F3 		sdiv	r3, r2, r3
 325 0056 0993     		str	r3, [sp, #36]
 326              		.loc 1 102 0
 327 0058 089A     		ldr	r2, [sp, #32]
 328 005a 029B     		ldr	r3, [sp, #8]
 329 005c 92FBF3F3 		sdiv	r3, r2, r3
 330 0060 0893     		str	r3, [sp, #32]
 331              		.loc 1 107 0
 332 0062 099A     		ldr	r2, [sp, #36]
 333 0064 019B     		ldr	r3, [sp, #4]
 334 0066 D21A     		subs	r2, r2, r3
 335 0068 1346     		mov	r3, r2
 336 006a 1B01     		lsls	r3, r3, #4
 337 006c 9A1A     		subs	r2, r3, r2
 338 006e 0099     		ldr	r1, [sp]
 339 0070 019B     		ldr	r3, [sp, #4]
 340 0072 CB1A     		subs	r3, r1, r3
 341 0074 92FBF3F3 		sdiv	r3, r2, r3
ARM GAS  c:\Tmp\ccoIAPBg.s 			page 7


 342 0078 0793     		str	r3, [sp, #28]
 343              		.loc 1 108 0
 344 007a 079B     		ldr	r3, [sp, #28]
 345 007c 002B     		cmp	r3, #0
 346 007e 02DA     		bge	.L19
 347              		.loc 1 109 0
 348 0080 0023     		movs	r3, #0
 349 0082 0793     		str	r3, [sp, #28]
 350 0084 04E0     		b	.L20
 351              	.L19:
 352              		.loc 1 110 0
 353 0086 079B     		ldr	r3, [sp, #28]
 354 0088 0F2B     		cmp	r3, #15
 355 008a 01DD     		ble	.L20
 356              		.loc 1 111 0
 357 008c 0F23     		movs	r3, #15
 358 008e 0793     		str	r3, [sp, #28]
 359              	.L20:
 360              		.loc 1 112 0
 361 0090 089A     		ldr	r2, [sp, #32]
 362 0092 019B     		ldr	r3, [sp, #4]
 363 0094 D21A     		subs	r2, r2, r3
 364 0096 1346     		mov	r3, r2
 365 0098 1B01     		lsls	r3, r3, #4
 366 009a 9A1A     		subs	r2, r3, r2
 367 009c 0099     		ldr	r1, [sp]
 368 009e 019B     		ldr	r3, [sp, #4]
 369 00a0 CB1A     		subs	r3, r1, r3
 370 00a2 92FBF3F3 		sdiv	r3, r2, r3
 371 00a6 0693     		str	r3, [sp, #24]
 372              		.loc 1 113 0
 373 00a8 069B     		ldr	r3, [sp, #24]
 374 00aa 002B     		cmp	r3, #0
 375 00ac 02DA     		bge	.L21
 376              		.loc 1 114 0
 377 00ae 0023     		movs	r3, #0
 378 00b0 0693     		str	r3, [sp, #24]
 379 00b2 04E0     		b	.L22
 380              	.L21:
 381              		.loc 1 115 0
 382 00b4 069B     		ldr	r3, [sp, #24]
 383 00b6 0F2B     		cmp	r3, #15
 384 00b8 01DD     		ble	.L22
 385              		.loc 1 116 0
 386 00ba 0F23     		movs	r3, #15
 387 00bc 0693     		str	r3, [sp, #24]
 388              	.L22:
 389              		.loc 1 121 0
 390 00be 0598     		ldr	r0, [sp, #20]
 391 00c0 0021     		movs	r1, #0
 392 00c2 FFF7FEFF 		bl	LCD_GotoXY
 393              		.loc 1 122 0
 394 00c6 2020     		movs	r0, #32
 395 00c8 FFF7FEFF 		bl	LCD_SendChar
 396              		.loc 1 123 0
 397 00cc 0498     		ldr	r0, [sp, #16]
 398 00ce 0121     		movs	r1, #1
ARM GAS  c:\Tmp\ccoIAPBg.s 			page 8


 399 00d0 FFF7FEFF 		bl	LCD_GotoXY
 400              		.loc 1 124 0
 401 00d4 2020     		movs	r0, #32
 402 00d6 FFF7FEFF 		bl	LCD_SendChar
 403              		.loc 1 125 0
 404 00da 0798     		ldr	r0, [sp, #28]
 405 00dc 0021     		movs	r1, #0
 406 00de FFF7FEFF 		bl	LCD_GotoXY
 407              		.loc 1 126 0
 408 00e2 4F20     		movs	r0, #79
 409 00e4 FFF7FEFF 		bl	LCD_SendChar
 410              		.loc 1 127 0
 411 00e8 0698     		ldr	r0, [sp, #24]
 412 00ea 0121     		movs	r1, #1
 413 00ec FFF7FEFF 		bl	LCD_GotoXY
 414              		.loc 1 128 0
 415 00f0 4F20     		movs	r0, #79
 416 00f2 FFF7FEFF 		bl	LCD_SendChar
 417              		.loc 1 129 0
 418 00f6 079B     		ldr	r3, [sp, #28]
 419 00f8 0593     		str	r3, [sp, #20]
 420              		.loc 1 130 0
 421 00fa 069B     		ldr	r3, [sp, #24]
 422 00fc 0493     		str	r3, [sp, #16]
 423              		.loc 1 132 0
 424 00fe 88E7     		b	.L23
 425              		.cfi_endproc
 426              	.LFE120:
 427              		.size	visualInclination, .-visualInclination
 428              		.section	.text.readAccel,"ax",%progbits
 429              		.align	2
 430              		.p2align 4,,15
 431              		.global	readAccel
 432              		.thumb
 433              		.thumb_func
 434              		.type	readAccel, %function
 435              	readAccel:
 436              	.LFB121:
 437              		.loc 1 150 0
 438              		.cfi_startproc
 439              		@ args = 0, pretend = 0, frame = 16
 440              		@ frame_needed = 0, uses_anonymous_args = 0
 441 0000 00B5     		push	{lr}
 442              		.cfi_def_cfa_offset 4
 443              		.cfi_offset 14, -4
 444 0002 85B0     		sub	sp, sp, #20
 445              		.cfi_def_cfa_offset 24
 446 0004 0190     		str	r0, [sp, #4]
 447 0006 0091     		str	r1, [sp]
 448              		.loc 1 155 0
 449 0008 019B     		ldr	r3, [sp, #4]
 450 000a 03F03F03 		and	r3, r3, #63
 451 000e 0193     		str	r3, [sp, #4]
 452              		.loc 1 159 0
 453 0010 019B     		ldr	r3, [sp, #4]
 454 0012 0E2B     		cmp	r3, #14
 455 0014 02DC     		bgt	.L25
ARM GAS  c:\Tmp\ccoIAPBg.s 			page 9


 456              		.loc 1 159 0 is_stmt 0 discriminator 1
 457 0016 40F2E933 		movw	r3, #1001
 458 001a 5AE0     		b	.L33
 459              	.L25:
 460              		.loc 1 160 0 is_stmt 1
 461 001c 019B     		ldr	r3, [sp, #4]
 462 001e 1F2B     		cmp	r3, #31
 463 0020 05DC     		bgt	.L27
 464              		.loc 1 160 0 is_stmt 0 discriminator 1
 465 0022 019B     		ldr	r3, [sp, #4]
 466 0024 0F2B     		cmp	r3, #15
 467 0026 02DD     		ble	.L27
 468 0028 40F2E933 		movw	r3, #1001
 469 002c 51E0     		b	.L33
 470              	.L27:
 471              		.loc 1 161 0 is_stmt 1
 472 002e 019B     		ldr	r3, [sp, #4]
 473 0030 262B     		cmp	r3, #38
 474 0032 05DC     		bgt	.L28
 475              		.loc 1 161 0 is_stmt 0 discriminator 1
 476 0034 019B     		ldr	r3, [sp, #4]
 477 0036 232B     		cmp	r3, #35
 478 0038 02DD     		ble	.L28
 479 003a 40F2E933 		movw	r3, #1001
 480 003e 48E0     		b	.L33
 481              	.L28:
 482              		.loc 1 162 0 is_stmt 1
 483 0040 019B     		ldr	r3, [sp, #4]
 484 0042 2F2B     		cmp	r3, #47
 485 0044 05DC     		bgt	.L29
 486              		.loc 1 162 0 is_stmt 0 discriminator 1
 487 0046 019B     		ldr	r3, [sp, #4]
 488 0048 2D2B     		cmp	r3, #45
 489 004a 02DD     		ble	.L29
 490 004c 40F2E933 		movw	r3, #1001
 491 0050 3FE0     		b	.L33
 492              	.L29:
 493              		.loc 1 165 0 is_stmt 1
 494 0052 224B     		ldr	r3, .L34
 495 0054 0822     		movs	r2, #8
 496 0056 5A83     		strh	r2, [r3, #26]	@ movhi
 497              		.loc 1 171 0
 498 0058 019B     		ldr	r3, [sp, #4]
 499 005a 43F08003 		orr	r3, r3, #128
 500 005e 0193     		str	r3, [sp, #4]
 501              		.loc 1 174 0
 502 0060 1F4B     		ldr	r3, .L34+4
 503 0062 019A     		ldr	r2, [sp, #4]
 504 0064 92B2     		uxth	r2, r2
 505 0066 9A81     		strh	r2, [r3, #12]	@ movhi
 506              		.loc 1 177 0
 507 0068 0220     		movs	r0, #2
 508 006a FFF7FEFF 		bl	gptDelayUs
 509              		.loc 1 180 0
 510 006e 00BF     		nop
 511              	.L30:
 512              		.loc 1 180 0 is_stmt 0 discriminator 1
ARM GAS  c:\Tmp\ccoIAPBg.s 			page 10


 513 0070 1B4B     		ldr	r3, .L34+4
 514 0072 1B89     		ldrh	r3, [r3, #8]	@ movhi
 515 0074 9BB2     		uxth	r3, r3
 516 0076 03F00103 		and	r3, r3, #1
 517 007a 002B     		cmp	r3, #0
 518 007c F8D0     		beq	.L30
 519              		.loc 1 184 0 is_stmt 1
 520 007e 184B     		ldr	r3, .L34+4
 521 0080 9B89     		ldrh	r3, [r3, #12]	@ movhi
 522 0082 9BB2     		uxth	r3, r3
 523 0084 DBB2     		uxtb	r3, r3
 524 0086 8DF80B30 		strb	r3, [sp, #11]
 525              		.loc 1 187 0
 526 008a 154B     		ldr	r3, .L34+4
 527 008c FF22     		movs	r2, #255
 528 008e 9A81     		strh	r2, [r3, #12]	@ movhi
 529              		.loc 1 190 0
 530 0090 0220     		movs	r0, #2
 531 0092 FFF7FEFF 		bl	gptDelayUs
 532              		.loc 1 193 0
 533 0096 00BF     		nop
 534              	.L31:
 535              		.loc 1 193 0 is_stmt 0 discriminator 1
 536 0098 114B     		ldr	r3, .L34+4
 537 009a 1B89     		ldrh	r3, [r3, #8]	@ movhi
 538 009c 9BB2     		uxth	r3, r3
 539 009e 03F00103 		and	r3, r3, #1
 540 00a2 002B     		cmp	r3, #0
 541 00a4 F8D0     		beq	.L31
 542              		.loc 1 196 0 is_stmt 1
 543 00a6 0E4B     		ldr	r3, .L34+4
 544 00a8 9B89     		ldrh	r3, [r3, #12]	@ movhi
 545 00aa 9BB2     		uxth	r3, r3
 546 00ac DBB2     		uxtb	r3, r3
 547 00ae 8DF80B30 		strb	r3, [sp, #11]
 548              		.loc 1 199 0
 549 00b2 0A4B     		ldr	r3, .L34
 550 00b4 0822     		movs	r2, #8
 551 00b6 1A83     		strh	r2, [r3, #24]	@ movhi
 552              		.loc 1 204 0
 553 00b8 009B     		ldr	r3, [sp]
 554 00ba 002B     		cmp	r3, #0
 555 00bc 03D1     		bne	.L32
 556              		.loc 1 204 0 is_stmt 0 discriminator 1
 557 00be 9DF80B30 		ldrb	r3, [sp, #11]	@ zero_extendqisi2
 558 00c2 5BB2     		sxtb	r3, r3
 559 00c4 05E0     		b	.L33
 560              	.L32:
 561              		.loc 1 209 0 is_stmt 1
 562 00c6 0DF10B03 		add	r3, sp, #11
 563 00ca 0393     		str	r3, [sp, #12]
 564              		.loc 1 212 0
 565 00cc 039B     		ldr	r3, [sp, #12]
 566 00ce 1B78     		ldrb	r3, [r3]	@ zero_extendqisi2
 567 00d0 5BB2     		sxtb	r3, r3
 568              	.L33:
 569              		.loc 1 213 0
ARM GAS  c:\Tmp\ccoIAPBg.s 			page 11


 570 00d2 1846     		mov	r0, r3
 571 00d4 05B0     		add	sp, sp, #20
 572              		@ sp needed
 573 00d6 5DF804FB 		ldr	pc, [sp], #4
 574              	.L35:
 575 00da 00BF     		.align	2
 576              	.L34:
 577 00dc 00100240 		.word	1073876992
 578 00e0 00300140 		.word	1073819648
 579              		.cfi_endproc
 580              	.LFE121:
 581              		.size	readAccel, .-readAccel
 582 00e4 AFF30080 		.section	.text.itoa,"ax",%progbits
 582      AFF30080 
 582      AFF30080 
 583              		.align	2
 584              		.p2align 4,,15
 585              		.global	itoa
 586              		.thumb
 587              		.thumb_func
 588              		.type	itoa, %function
 589              	itoa:
 590              	.LFB122:
 591              		.loc 1 230 0
 592              		.cfi_startproc
 593              		@ args = 0, pretend = 0, frame = 32
 594              		@ frame_needed = 0, uses_anonymous_args = 0
 595              		@ link register save eliminated.
 596 0000 88B0     		sub	sp, sp, #32
 597              		.cfi_def_cfa_offset 32
 598 0002 0390     		str	r0, [sp, #12]
 599 0004 0291     		str	r1, [sp, #8]
 600 0006 0192     		str	r2, [sp, #4]
 601              		.loc 1 231 0
 602 0008 0023     		movs	r3, #0
 603 000a 0793     		str	r3, [sp, #28]
 604              		.loc 1 232 0
 605 000c 0023     		movs	r3, #0
 606 000e 0693     		str	r3, [sp, #24]
 607              		.loc 1 236 0
 608 0010 039B     		ldr	r3, [sp, #12]
 609 0012 002B     		cmp	r3, #0
 610 0014 04DA     		bge	.L37
 611              		.loc 1 238 0
 612 0016 0123     		movs	r3, #1
 613 0018 0793     		str	r3, [sp, #28]
 614              		.loc 1 239 0
 615 001a 039B     		ldr	r3, [sp, #12]
 616 001c 5B42     		negs	r3, r3
 617 001e 0393     		str	r3, [sp, #12]
 618              	.L37:
 619              		.loc 1 244 0
 620 0020 039B     		ldr	r3, [sp, #12]
 621 0022 019A     		ldr	r2, [sp, #4]
 622 0024 93FBF2F2 		sdiv	r2, r3, r2
 623 0028 0199     		ldr	r1, [sp, #4]
 624 002a 01FB02F2 		mul	r2, r1, r2
ARM GAS  c:\Tmp\ccoIAPBg.s 			page 12


 625 002e 9B1A     		subs	r3, r3, r2
 626 0030 0593     		str	r3, [sp, #20]
 627              		.loc 1 245 0
 628 0032 059B     		ldr	r3, [sp, #20]
 629 0034 092B     		cmp	r3, #9
 630 0036 08DC     		bgt	.L38
 631              		.loc 1 246 0
 632 0038 069B     		ldr	r3, [sp, #24]
 633 003a 029A     		ldr	r2, [sp, #8]
 634 003c 1344     		add	r3, r3, r2
 635 003e 059A     		ldr	r2, [sp, #20]
 636 0040 D2B2     		uxtb	r2, r2
 637 0042 3032     		adds	r2, r2, #48
 638 0044 D2B2     		uxtb	r2, r2
 639 0046 1A70     		strb	r2, [r3]
 640 0048 07E0     		b	.L39
 641              	.L38:
 642              		.loc 1 248 0
 643 004a 069B     		ldr	r3, [sp, #24]
 644 004c 029A     		ldr	r2, [sp, #8]
 645 004e 1344     		add	r3, r3, r2
 646 0050 059A     		ldr	r2, [sp, #20]
 647 0052 D2B2     		uxtb	r2, r2
 648 0054 3732     		adds	r2, r2, #55
 649 0056 D2B2     		uxtb	r2, r2
 650 0058 1A70     		strb	r2, [r3]
 651              	.L39:
 652              		.loc 1 249 0
 653 005a 069B     		ldr	r3, [sp, #24]
 654 005c 0133     		adds	r3, r3, #1
 655 005e 0693     		str	r3, [sp, #24]
 656              		.loc 1 250 0
 657 0060 039A     		ldr	r2, [sp, #12]
 658 0062 019B     		ldr	r3, [sp, #4]
 659 0064 92FBF3F3 		sdiv	r3, r2, r3
 660 0068 0393     		str	r3, [sp, #12]
 661              		.loc 1 252 0
 662 006a 039B     		ldr	r3, [sp, #12]
 663 006c 002B     		cmp	r3, #0
 664 006e D7DC     		bgt	.L37
 665              		.loc 1 255 0
 666 0070 079B     		ldr	r3, [sp, #28]
 667 0072 002B     		cmp	r3, #0
 668 0074 05D0     		beq	.L40
 669              		.loc 1 256 0
 670 0076 069B     		ldr	r3, [sp, #24]
 671 0078 029A     		ldr	r2, [sp, #8]
 672 007a 1344     		add	r3, r3, r2
 673 007c 2D22     		movs	r2, #45
 674 007e 1A70     		strb	r2, [r3]
 675 0080 02E0     		b	.L41
 676              	.L40:
 677              		.loc 1 258 0
 678 0082 069B     		ldr	r3, [sp, #24]
 679 0084 013B     		subs	r3, r3, #1
 680 0086 0693     		str	r3, [sp, #24]
 681              	.L41:
ARM GAS  c:\Tmp\ccoIAPBg.s 			page 13


 682              		.loc 1 261 0
 683 0088 069B     		ldr	r3, [sp, #24]
 684 008a 0133     		adds	r3, r3, #1
 685 008c 029A     		ldr	r2, [sp, #8]
 686 008e 1344     		add	r3, r3, r2
 687 0090 0022     		movs	r2, #0
 688 0092 1A70     		strb	r2, [r3]
 689              		.loc 1 266 0
 690 0094 0023     		movs	r3, #0
 691 0096 0593     		str	r3, [sp, #20]
 692              	.L42:
 693              		.loc 1 269 0 discriminator 1
 694 0098 059B     		ldr	r3, [sp, #20]
 695 009a 029A     		ldr	r2, [sp, #8]
 696 009c 1344     		add	r3, r3, r2
 697 009e 1B78     		ldrb	r3, [r3]	@ zero_extendqisi2
 698 00a0 0793     		str	r3, [sp, #28]
 699              		.loc 1 270 0 discriminator 1
 700 00a2 059B     		ldr	r3, [sp, #20]
 701 00a4 5A1C     		adds	r2, r3, #1
 702 00a6 0592     		str	r2, [sp, #20]
 703 00a8 029A     		ldr	r2, [sp, #8]
 704 00aa 1344     		add	r3, r3, r2
 705 00ac 069A     		ldr	r2, [sp, #24]
 706 00ae 0299     		ldr	r1, [sp, #8]
 707 00b0 0A44     		add	r2, r2, r1
 708 00b2 1278     		ldrb	r2, [r2]	@ zero_extendqisi2
 709 00b4 1A70     		strb	r2, [r3]
 710              		.loc 1 271 0 discriminator 1
 711 00b6 069B     		ldr	r3, [sp, #24]
 712 00b8 5A1E     		subs	r2, r3, #1
 713 00ba 0692     		str	r2, [sp, #24]
 714 00bc 029A     		ldr	r2, [sp, #8]
 715 00be 1344     		add	r3, r3, r2
 716 00c0 079A     		ldr	r2, [sp, #28]
 717 00c2 D2B2     		uxtb	r2, r2
 718 00c4 1A70     		strb	r2, [r3]
 719              		.loc 1 273 0 discriminator 1
 720 00c6 059A     		ldr	r2, [sp, #20]
 721 00c8 069B     		ldr	r3, [sp, #24]
 722 00ca 9A42     		cmp	r2, r3
 723 00cc E4DB     		blt	.L42
 724              		.loc 1 275 0
 725 00ce 029B     		ldr	r3, [sp, #8]
 726              		.loc 1 276 0
 727 00d0 1846     		mov	r0, r3
 728 00d2 08B0     		add	sp, sp, #32
 729              		@ sp needed
 730 00d4 7047     		bx	lr
 731              		.cfi_endproc
 732              	.LFE122:
 733              		.size	itoa, .-itoa
 734 00d6 00BFAFF3 		.text
 734      0080AFF3 
 734      0080
 735              	.Letext0:
 736              		.file 2 "c:\\stm32v2\\gnu-arm\\arm-none-eabi\\include\\machine\\_default_types.h"
ARM GAS  c:\Tmp\ccoIAPBg.s 			page 14


 737              		.file 3 "c:\\stm32v2\\gnu-arm\\arm-none-eabi\\include\\stdint.h"
 738              		.file 4 "C:/STM32v2/ChibiOS_2.6.2/os/hal/platforms/STM32F4xx/stm32f4xx.h"
 739              		.file 5 "C:/STM32v2/ChibiOS_2.6.2/os/hal/platforms/STM32/GPIOv2/pal_lld.h"
 740              		.file 6 "C:/STM32v2/ChibiOS_2.6.2/os/ports/common/ARMCMx/CMSIS/include/core_cm4.h"