ARM GAS  c:\Tmp\ccxMWfDY.s 			page 1


   1              		.syntax unified
   2              		.cpu cortex-m4
   3              		.eabi_attribute 27, 3
   4              		.eabi_attribute 28, 1
   5              		.fpu fpv4-sp-d16
   6              		.eabi_attribute 20, 1
   7              		.eabi_attribute 21, 1
   8              		.eabi_attribute 23, 3
   9              		.eabi_attribute 24, 1
  10              		.eabi_attribute 25, 1
  11              		.eabi_attribute 26, 1
  12              		.eabi_attribute 30, 6
  13              		.eabi_attribute 34, 1
  14              		.eabi_attribute 18, 4
  15              		.thumb
  16              		.file	"analog.c"
  17              		.text
  18              	.Ltext0:
  19              		.cfi_sections	.debug_frame
  20              		.section	.text.initADC,"ax",%progbits
  21              		.align	2
  22              		.p2align 4,,15
  23              		.global	initADC
  24              		.thumb
  25              		.thumb_func
  26              		.type	initADC, %function
  27              	initADC:
  28              	.LFB118:
  29              		.file 1 "analog.c"
  30              		.loc 1 4 0
  31              		.cfi_startproc
  32              		@ args = 0, pretend = 0, frame = 0
  33              		@ frame_needed = 0, uses_anonymous_args = 0
  34              		@ link register save eliminated.
  35              		.loc 1 7 0
  36 0000 234B     		ldr	r3, .L2
  37 0002 234A     		ldr	r2, .L2
  38 0004 526C     		ldr	r2, [r2, #68]
  39 0006 42F48072 		orr	r2, r2, #256
  40 000a 5A64     		str	r2, [r3, #68]
  41              		.loc 1 12 0
  42 000c 214B     		ldr	r3, .L2+4
  43 000e 214A     		ldr	r2, .L2+4
  44 0010 5268     		ldr	r2, [r2, #4]
  45 0012 42F48032 		orr	r2, r2, #65536
  46 0016 5A60     		str	r2, [r3, #4]
  47              		.loc 1 13 0
  48 0018 1E4B     		ldr	r3, .L2+4
  49 001a 1E4A     		ldr	r2, .L2+4
  50 001c 5268     		ldr	r2, [r2, #4]
  51 001e 22F40032 		bic	r2, r2, #131072
  52 0022 5A60     		str	r2, [r3, #4]
  53              		.loc 1 16 0
  54 0024 1C4B     		ldr	r3, .L2+8
  55 0026 1C4A     		ldr	r2, .L2+8
  56 0028 1269     		ldr	r2, [r2, #16]
  57 002a 22F0E062 		bic	r2, r2, #117440512
ARM GAS  c:\Tmp\ccxMWfDY.s 			page 2


  58 002e 42F00072 		orr	r2, r2, #33554432
  59 0032 1A61     		str	r2, [r3, #16]
  60              		.loc 1 17 0
  61 0034 184B     		ldr	r3, .L2+8
  62 0036 184A     		ldr	r2, .L2+8
  63 0038 D268     		ldr	r2, [r2, #12]
  64 003a 42F4E012 		orr	r2, r2, #1835008
  65 003e DA60     		str	r2, [r3, #12]
  66              		.loc 1 18 0
  67 0040 154B     		ldr	r3, .L2+8
  68 0042 154A     		ldr	r2, .L2+8
  69 0044 D268     		ldr	r2, [r2, #12]
  70 0046 42F46002 		orr	r2, r2, #14680064
  71 004a DA60     		str	r2, [r3, #12]
  72              		.loc 1 21 0
  73 004c 114B     		ldr	r3, .L2+4
  74 004e 114A     		ldr	r2, .L2+4
  75 0050 5268     		ldr	r2, [r2, #4]
  76 0052 42F40002 		orr	r2, r2, #8388608
  77 0056 5A60     		str	r2, [r3, #4]
  78              		.loc 1 25 0
  79 0058 104B     		ldr	r3, .L2+12
  80 005a 104A     		ldr	r2, .L2+12
  81 005c 1268     		ldr	r2, [r2]
  82 005e 42F00302 		orr	r2, r2, #3
  83 0062 1A60     		str	r2, [r3]
  84              		.loc 1 26 0
  85 0064 0D4A     		ldr	r2, .L2+12
  86 0066 0D4B     		ldr	r3, .L2+12
  87 0068 5B68     		ldr	r3, [r3, #4]
  88 006a 23F4FE73 		bic	r3, r3, #508
  89 006e 23F00103 		bic	r3, r3, #1
  90 0072 5360     		str	r3, [r2, #4]
  91              		.loc 1 27 0
  92 0074 094B     		ldr	r3, .L2+12
  93 0076 094A     		ldr	r2, .L2+12
  94 0078 5268     		ldr	r2, [r2, #4]
  95 007a 22F47E42 		bic	r2, r2, #65024
  96 007e 5A60     		str	r2, [r3, #4]
  97              		.loc 1 30 0
  98 0080 054B     		ldr	r3, .L2+8
  99 0082 054A     		ldr	r2, .L2+8
 100 0084 9268     		ldr	r2, [r2, #8]
 101 0086 42F00102 		orr	r2, r2, #1
 102 008a 9A60     		str	r2, [r3, #8]
 103              		.loc 1 31 0
 104 008c 7047     		bx	lr
 105              	.L3:
 106 008e 00BF     		.align	2
 107              	.L2:
 108 0090 00380240 		.word	1073887232
 109 0094 00230140 		.word	1073816320
 110 0098 00200140 		.word	1073815552
 111 009c 00040240 		.word	1073873920
 112              		.cfi_endproc
 113              	.LFE118:
 114              		.size	initADC, .-initADC
ARM GAS  c:\Tmp\ccxMWfDY.s 			page 3


 115              		.section	.text.readIN8,"ax",%progbits
 116              		.align	2
 117              		.p2align 4,,15
 118              		.global	readIN8
 119              		.thumb
 120              		.thumb_func
 121              		.type	readIN8, %function
 122              	readIN8:
 123              	.LFB119:
 124              		.loc 1 33 0
 125              		.cfi_startproc
 126              		@ args = 0, pretend = 0, frame = 8
 127              		@ frame_needed = 0, uses_anonymous_args = 0
 128              		@ link register save eliminated.
 129 0000 82B0     		sub	sp, sp, #8
 130              		.cfi_def_cfa_offset 8
 131              		.loc 1 35 0
 132 0002 0E4B     		ldr	r3, .L7
 133 0004 0D4A     		ldr	r2, .L7
 134 0006 526B     		ldr	r2, [r2, #52]
 135 0008 22F01F02 		bic	r2, r2, #31
 136 000c 42F00802 		orr	r2, r2, #8
 137 0010 5A63     		str	r2, [r3, #52]
 138              		.loc 1 38 0
 139 0012 0A4B     		ldr	r3, .L7
 140 0014 094A     		ldr	r2, .L7
 141 0016 9268     		ldr	r2, [r2, #8]
 142 0018 42F08042 		orr	r2, r2, #1073741824
 143 001c 9A60     		str	r2, [r3, #8]
 144              		.loc 1 41 0
 145 001e 00BF     		nop
 146              	.L5:
 147              		.loc 1 41 0 is_stmt 0 discriminator 1
 148 0020 064B     		ldr	r3, .L7
 149 0022 1B68     		ldr	r3, [r3]
 150 0024 03F00203 		and	r3, r3, #2
 151 0028 002B     		cmp	r3, #0
 152 002a F9D0     		beq	.L5
 153              		.loc 1 44 0 is_stmt 1
 154 002c 034B     		ldr	r3, .L7
 155 002e DB6C     		ldr	r3, [r3, #76]
 156 0030 0193     		str	r3, [sp, #4]
 157              		.loc 1 45 0
 158 0032 019B     		ldr	r3, [sp, #4]
 159              		.loc 1 46 0
 160 0034 1846     		mov	r0, r3
 161 0036 02B0     		add	sp, sp, #8
 162              		@ sp needed
 163 0038 7047     		bx	lr
 164              	.L8:
 165 003a 00BF     		.align	2
 166              	.L7:
 167 003c 00200140 		.word	1073815552
 168              		.cfi_endproc
 169              	.LFE119:
 170              		.size	readIN8, .-readIN8
 171              		.section	.text.readChannel,"ax",%progbits
ARM GAS  c:\Tmp\ccxMWfDY.s 			page 4


 172              		.align	2
 173              		.p2align 4,,15
 174              		.global	readChannel
 175              		.thumb
 176              		.thumb_func
 177              		.type	readChannel, %function
 178              	readChannel:
 179              	.LFB120:
 180              		.loc 1 48 0
 181              		.cfi_startproc
 182              		@ args = 0, pretend = 0, frame = 16
 183              		@ frame_needed = 0, uses_anonymous_args = 0
 184              		@ link register save eliminated.
 185 0000 84B0     		sub	sp, sp, #16
 186              		.cfi_def_cfa_offset 16
 187 0002 0190     		str	r0, [sp, #4]
 188              		.loc 1 50 0
 189 0004 0D4B     		ldr	r3, .L12
 190 0006 0D4A     		ldr	r2, .L12
 191 0008 526B     		ldr	r2, [r2, #52]
 192 000a 22F01F01 		bic	r1, r2, #31
 193 000e 019A     		ldr	r2, [sp, #4]
 194 0010 4A40     		eors	r2, r2, r1
 195 0012 5A63     		str	r2, [r3, #52]
 196              		.loc 1 53 0
 197 0014 094B     		ldr	r3, .L12
 198 0016 094A     		ldr	r2, .L12
 199 0018 9268     		ldr	r2, [r2, #8]
 200 001a 42F08042 		orr	r2, r2, #1073741824
 201 001e 9A60     		str	r2, [r3, #8]
 202              		.loc 1 56 0
 203 0020 00BF     		nop
 204              	.L10:
 205              		.loc 1 56 0 is_stmt 0 discriminator 1
 206 0022 064B     		ldr	r3, .L12
 207 0024 1B68     		ldr	r3, [r3]
 208 0026 03F00203 		and	r3, r3, #2
 209 002a 002B     		cmp	r3, #0
 210 002c F9D0     		beq	.L10
 211              		.loc 1 59 0 is_stmt 1
 212 002e 034B     		ldr	r3, .L12
 213 0030 DB6C     		ldr	r3, [r3, #76]
 214 0032 0393     		str	r3, [sp, #12]
 215              		.loc 1 60 0
 216 0034 039B     		ldr	r3, [sp, #12]
 217              		.loc 1 61 0
 218 0036 1846     		mov	r0, r3
 219 0038 04B0     		add	sp, sp, #16
 220              		@ sp needed
 221 003a 7047     		bx	lr
 222              	.L13:
 223              		.align	2
 224              	.L12:
 225 003c 00200140 		.word	1073815552
 226              		.cfi_endproc
 227              	.LFE120:
 228              		.size	readChannel, .-readChannel
ARM GAS  c:\Tmp\ccxMWfDY.s 			page 5


 229              		.section	.text.readT,"ax",%progbits
 230              		.align	2
 231              		.p2align 4,,15
 232              		.global	readT
 233              		.thumb
 234              		.thumb_func
 235              		.type	readT, %function
 236              	readT:
 237              	.LFB121:
 238              		.loc 1 63 0
 239              		.cfi_startproc
 240              		@ args = 0, pretend = 0, frame = 16
 241              		@ frame_needed = 0, uses_anonymous_args = 0
 242 0000 00B5     		push	{lr}
 243              		.cfi_def_cfa_offset 4
 244              		.cfi_offset 14, -4
 245 0002 85B0     		sub	sp, sp, #20
 246              		.cfi_def_cfa_offset 24
 247              		.loc 1 65 0
 248 0004 1020     		movs	r0, #16
 249 0006 FFF7FEFF 		bl	readChannel
 250 000a 0390     		str	r0, [sp, #12]
 251              		.loc 1 70 0
 252 000c 039B     		ldr	r3, [sp, #12]
 253 000e 47F23052 		movw	r2, #30000
 254 0012 02FB03F3 		mul	r3, r2, r3
 255 0016 0F4A     		ldr	r2, .L16
 256 0018 82FB0312 		smull	r1, r2, r2, r3
 257 001c 1A44     		add	r2, r2, r3
 258 001e D212     		asrs	r2, r2, #11
 259 0020 DB17     		asrs	r3, r3, #31
 260 0022 D31A     		subs	r3, r2, r3
 261 0024 0293     		str	r3, [sp, #8]
 262              		.loc 1 71 0
 263 0026 029B     		ldr	r3, [sp, #8]
 264 0028 A3F5ED53 		sub	r3, r3, #7584
 265 002c 103B     		subs	r3, r3, #16
 266 002e 4FF4C872 		mov	r2, #400
 267 0032 02FB03F3 		mul	r3, r2, r3
 268 0036 03F57433 		add	r3, r3, #249856
 269 003a 9033     		adds	r3, r3, #144
 270 003c 0193     		str	r3, [sp, #4]
 271              		.loc 1 72 0
 272 003e 019B     		ldr	r3, [sp, #4]
 273 0040 054A     		ldr	r2, .L16+4
 274 0042 82FB0312 		smull	r1, r2, r2, r3
 275 0046 9211     		asrs	r2, r2, #6
 276 0048 DB17     		asrs	r3, r3, #31
 277 004a D31A     		subs	r3, r2, r3
 278              		.loc 1 73 0
 279 004c 1846     		mov	r0, r3
 280 004e 05B0     		add	sp, sp, #20
 281              		@ sp needed
 282 0050 5DF804FB 		ldr	pc, [sp], #4
 283              	.L17:
 284              		.align	2
 285              	.L16:
ARM GAS  c:\Tmp\ccxMWfDY.s 			page 6


 286 0054 81000880 		.word	-2146959231
 287 0058 D34D6210 		.word	274877907
 288              		.cfi_endproc
 289              	.LFE121:
 290              		.size	readT, .-readT
 291 005c AFF30080 		.section	.text.readVdd,"ax",%progbits
 292              		.align	2
 293              		.p2align 4,,15
 294              		.global	readVdd
 295              		.thumb
 296              		.thumb_func
 297              		.type	readVdd, %function
 298              	readVdd:
 299              	.LFB122:
 300              		.loc 1 75 0
 301              		.cfi_startproc
 302              		@ args = 0, pretend = 0, frame = 8
 303              		@ frame_needed = 0, uses_anonymous_args = 0
 304 0000 00B5     		push	{lr}
 305              		.cfi_def_cfa_offset 4
 306              		.cfi_offset 14, -4
 307 0002 83B0     		sub	sp, sp, #12
 308              		.cfi_def_cfa_offset 16
 309              		.loc 1 78 0
 310 0004 1120     		movs	r0, #17
 311 0006 FFF7FEFF 		bl	readChannel
 312 000a 0346     		mov	r3, r0
 313 000c 044A     		ldr	r2, .L20
 314 000e 92FBF3F3 		sdiv	r3, r2, r3
 315 0012 0193     		str	r3, [sp, #4]
 316              		.loc 1 79 0
 317 0014 019B     		ldr	r3, [sp, #4]
 318              		.loc 1 80 0
 319 0016 1846     		mov	r0, r3
 320 0018 03B0     		add	sp, sp, #12
 321              		@ sp needed
 322 001a 5DF804FB 		ldr	pc, [sp], #4
 323              	.L21:
 324 001e 00BF     		.align	2
 325              	.L20:
 326 0020 00A04B00 		.word	4956160
 327              		.cfi_endproc
 328              	.LFE122:
 329              		.size	readVdd, .-readVdd
 330 0024 AFF30080 		.text
 330      AFF30080 
 330      AFF30080 
 331              	.Letext0:
 332              		.file 2 "c:\\stm32v2\\gnu-arm\\arm-none-eabi\\include\\machine\\_default_types.h"
 333              		.file 3 "c:\\stm32v2\\gnu-arm\\arm-none-eabi\\include\\stdint.h"
 334              		.file 4 "C:/STM32v2/ChibiOS_2.6.2/os/hal/platforms/STM32F4xx/stm32f4xx.h"
 335              		.file 5 "C:/STM32v2/ChibiOS_2.6.2/os/hal/platforms/STM32/GPIOv2/pal_lld.h"
 336              		.file 6 "C:/STM32v2/ChibiOS_2.6.2/os/ports/common/ARMCMx/CMSIS/include/core_cm4.h"