ARM GAS  c:\Tmp\cc3HY1rm.s 			page 1


   1              		.syntax unified
   2              		.cpu cortex-m4
   3              		.eabi_attribute 27, 3
   4              		.eabi_attribute 28, 1
   5              		.fpu fpv4-sp-d16
   6              		.eabi_attribute 20, 1
   7              		.eabi_attribute 21, 1
   8              		.eabi_attribute 23, 3
   9              		.eabi_attribute 24, 1
  10              		.eabi_attribute 25, 1
  11              		.eabi_attribute 26, 1
  12              		.eabi_attribute 30, 6
  13              		.eabi_attribute 34, 1
  14              		.eabi_attribute 18, 4
  15              		.thumb
  16              		.file	"Base.c"
  17              		.text
  18              	.Ltext0:
  19              		.cfi_sections	.debug_frame
  20              		.section	.rodata.gpt5cfg,"a",%progbits
  21              		.align	2
  22              		.type	gpt5cfg, %object
  23              		.size	gpt5cfg, 12
  24              	gpt5cfg:
  25 0000 40420F00 		.word	1000000
  26 0004 00000000 		.word	0
  27 0008 00000000 		.word	0
  28              		.section	.text.gptDelayUs,"ax",%progbits
  29              		.align	2
  30              		.p2align 4,,15
  31              		.global	gptDelayUs
  32              		.thumb
  33              		.thumb_func
  34              		.type	gptDelayUs, %function
  35              	gptDelayUs:
  36              	.LFB118:
  37              		.file 1 "Base.c"
  38              		.loc 1 27 0
  39              		.cfi_startproc
  40              		@ args = 0, pretend = 0, frame = 16
  41              		@ frame_needed = 0, uses_anonymous_args = 0
  42 0000 00B5     		push	{lr}
  43              		.cfi_def_cfa_offset 4
  44              		.cfi_offset 14, -4
  45 0002 85B0     		sub	sp, sp, #20
  46              		.cfi_def_cfa_offset 24
  47 0004 0190     		str	r0, [sp, #4]
  48              		.loc 1 30 0
  49 0006 0023     		movs	r3, #0
  50 0008 0393     		str	r3, [sp, #12]
  51 000a 06E0     		b	.L2
  52              	.L3:
  53              		.loc 1 31 0 discriminator 2
  54 000c 0648     		ldr	r0, .L4
  55 000e 0A21     		movs	r1, #10
  56 0010 FFF7FEFF 		bl	gptPolledDelay
  57              		.loc 1 30 0 discriminator 2
ARM GAS  c:\Tmp\cc3HY1rm.s 			page 2


  58 0014 039B     		ldr	r3, [sp, #12]
  59 0016 0A33     		adds	r3, r3, #10
  60 0018 0393     		str	r3, [sp, #12]
  61              	.L2:
  62              		.loc 1 30 0 is_stmt 0 discriminator 1
  63 001a 039A     		ldr	r2, [sp, #12]
  64 001c 019B     		ldr	r3, [sp, #4]
  65 001e 9A42     		cmp	r2, r3
  66 0020 F4D3     		bcc	.L3
  67              		.loc 1 33 0 is_stmt 1
  68 0022 05B0     		add	sp, sp, #20
  69              		@ sp needed
  70 0024 5DF804FB 		ldr	pc, [sp], #4
  71              	.L5:
  72              		.align	2
  73              	.L4:
  74 0028 00000000 		.word	GPTD5
  75              		.cfi_endproc
  76              	.LFE118:
  77              		.size	gptDelayUs, .-gptDelayUs
  78 002c AFF30080 		.section	.rodata.gpt9cfg,"a",%progbits
  79              		.align	2
  80              		.type	gpt9cfg, %object
  81              		.size	gpt9cfg, 12
  82              	gpt9cfg:
  83 0000 40420F00 		.word	1000000
  84 0004 00000000 		.word	0
  85 0008 00000000 		.word	0
  86              		.section	.text.gptDelayUs2,"ax",%progbits
  87              		.align	2
  88              		.p2align 4,,15
  89              		.global	gptDelayUs2
  90              		.thumb
  91              		.thumb_func
  92              		.type	gptDelayUs2, %function
  93              	gptDelayUs2:
  94              	.LFB119:
  95              		.loc 1 53 0
  96              		.cfi_startproc
  97              		@ args = 0, pretend = 0, frame = 16
  98              		@ frame_needed = 0, uses_anonymous_args = 0
  99 0000 00B5     		push	{lr}
 100              		.cfi_def_cfa_offset 4
 101              		.cfi_offset 14, -4
 102 0002 85B0     		sub	sp, sp, #20
 103              		.cfi_def_cfa_offset 24
 104 0004 0190     		str	r0, [sp, #4]
 105              		.loc 1 56 0
 106 0006 0023     		movs	r3, #0
 107 0008 0393     		str	r3, [sp, #12]
 108 000a 06E0     		b	.L7
 109              	.L8:
 110              		.loc 1 57 0 discriminator 2
 111 000c 0648     		ldr	r0, .L9
 112 000e 0A21     		movs	r1, #10
 113 0010 FFF7FEFF 		bl	gptPolledDelay
 114              		.loc 1 56 0 discriminator 2
ARM GAS  c:\Tmp\cc3HY1rm.s 			page 3


 115 0014 039B     		ldr	r3, [sp, #12]
 116 0016 0A33     		adds	r3, r3, #10
 117 0018 0393     		str	r3, [sp, #12]
 118              	.L7:
 119              		.loc 1 56 0 is_stmt 0 discriminator 1
 120 001a 039A     		ldr	r2, [sp, #12]
 121 001c 019B     		ldr	r3, [sp, #4]
 122 001e 9A42     		cmp	r2, r3
 123 0020 F4D3     		bcc	.L8
 124              		.loc 1 59 0 is_stmt 1
 125 0022 05B0     		add	sp, sp, #20
 126              		@ sp needed
 127 0024 5DF804FB 		ldr	pc, [sp], #4
 128              	.L10:
 129              		.align	2
 130              	.L9:
 131 0028 00000000 		.word	GPTD9
 132              		.cfi_endproc
 133              	.LFE119:
 134              		.size	gptDelayUs2, .-gptDelayUs2
 135 002c AFF30080 		.section	.text.baseInit,"ax",%progbits
 136              		.align	2
 137              		.p2align 4,,15
 138              		.global	baseInit
 139              		.thumb
 140              		.thumb_func
 141              		.type	baseInit, %function
 142              	baseInit:
 143              	.LFB120:
 144              		.loc 1 65 0
 145              		.cfi_startproc
 146              		@ args = 0, pretend = 0, frame = 0
 147              		@ frame_needed = 0, uses_anonymous_args = 0
 148 0000 08B5     		push	{r3, lr}
 149              		.cfi_def_cfa_offset 8
 150              		.cfi_offset 3, -8
 151              		.cfi_offset 14, -4
 152              		.loc 1 67 0
 153 0002 FFF7FEFF 		bl	halInit
 154              		.loc 1 70 0
 155 0006 FFF7FEFF 		bl	chSysInit
 156              		.loc 1 73 0
 157 000a 0448     		ldr	r0, .L12
 158 000c 0449     		ldr	r1, .L12+4
 159 000e FFF7FEFF 		bl	gptStart
 160              		.loc 1 76 0
 161 0012 0448     		ldr	r0, .L12+8
 162 0014 0449     		ldr	r1, .L12+12
 163 0016 FFF7FEFF 		bl	gptStart
 164              		.loc 1 77 0
 165 001a 08BD     		pop	{r3, pc}
 166              	.L13:
 167              		.align	2
 168              	.L12:
 169 001c 00000000 		.word	GPTD5
 170 0020 00000000 		.word	gpt5cfg
 171 0024 00000000 		.word	GPTD9
ARM GAS  c:\Tmp\cc3HY1rm.s 			page 4


 172 0028 00000000 		.word	gpt9cfg
 173              		.cfi_endproc
 174              	.LFE120:
 175              		.size	baseInit, .-baseInit
 176 002c AFF30080 		.text
 177              	.Letext0:
 178              		.file 2 "c:\\stm32v2\\gnu-arm\\arm-none-eabi\\include\\machine\\_default_types.h"
 179              		.file 3 "c:\\stm32v2\\gnu-arm\\arm-none-eabi\\include\\stdint.h"
 180              		.file 4 "C:/STM32v2/ChibiOS_2.6.2/os/hal/include/gpt.h"
 181              		.file 5 "C:/STM32v2/ChibiOS_2.6.2/os/hal/platforms/STM32/TIMv1/gpt_lld.h"
 182              		.file 6 "C:/STM32v2/ChibiOS_2.6.2/os/hal/platforms/STM32/TIMv1/stm32_tim.h"
 183              		.file 7 "C:/STM32v2/ChibiOS_2.6.2/os/ports/common/ARMCMx/CMSIS/include/core_cm4.h"