ARM GAS  c:\Tmp\ccUqTRgl.s 			page 1


   1              		.syntax unified
   2              		.cpu cortex-m4
   3              		.eabi_attribute 27, 3
   4              		.eabi_attribute 28, 1
   5              		.fpu fpv4-sp-d16
   6              		.eabi_attribute 20, 1
   7              		.eabi_attribute 21, 1
   8              		.eabi_attribute 23, 3
   9              		.eabi_attribute 24, 1
  10              		.eabi_attribute 25, 1
  11              		.eabi_attribute 26, 1
  12              		.eabi_attribute 30, 6
  13              		.eabi_attribute 34, 1
  14              		.eabi_attribute 18, 4
  15              		.thumb
  16              		.file	"comms.c"
  17              		.text
  18              	.Ltext0:
  19              		.cfi_sections	.debug_frame
  20              		.section	.text.GPIO_ModePushPull,"ax",%progbits
  21              		.align	2
  22              		.p2align 4,,15
  23              		.thumb
  24              		.thumb_func
  25              		.type	GPIO_ModePushPull, %function
  26              	GPIO_ModePushPull:
  27              	.LFB118:
  28              		.file 1 "comms.c"
  29              		.loc 1 18 0
  30              		.cfi_startproc
  31              		@ args = 0, pretend = 0, frame = 16
  32              		@ frame_needed = 0, uses_anonymous_args = 0
  33              		@ link register save eliminated.
  34 0000 84B0     		sub	sp, sp, #16
  35              		.cfi_def_cfa_offset 16
  36 0002 0390     		str	r0, [sp, #12]
  37 0004 0291     		str	r1, [sp, #8]
  38 0006 0192     		str	r2, [sp, #4]
  39              		.loc 1 20 0
  40 0008 039B     		ldr	r3, [sp, #12]
  41 000a 1A68     		ldr	r2, [r3]
  42 000c 029B     		ldr	r3, [sp, #8]
  43 000e 5B00     		lsls	r3, r3, #1
  44 0010 0133     		adds	r3, r3, #1
  45 0012 0121     		movs	r1, #1
  46 0014 01FA03F3 		lsl	r3, r1, r3
  47 0018 DB43     		mvns	r3, r3
  48 001a 1A40     		ands	r2, r2, r3
  49 001c 029B     		ldr	r3, [sp, #8]
  50 001e 5B00     		lsls	r3, r3, #1
  51 0020 0121     		movs	r1, #1
  52 0022 01FA03F3 		lsl	r3, r1, r3
  53 0026 1A43     		orrs	r2, r2, r3
  54 0028 039B     		ldr	r3, [sp, #12]
  55 002a 1A60     		str	r2, [r3]
  56              		.loc 1 23 0
  57 002c 039B     		ldr	r3, [sp, #12]
ARM GAS  c:\Tmp\ccUqTRgl.s 			page 2


  58 002e 5A68     		ldr	r2, [r3, #4]
  59 0030 0121     		movs	r1, #1
  60 0032 029B     		ldr	r3, [sp, #8]
  61 0034 01FA03F3 		lsl	r3, r1, r3
  62 0038 DB43     		mvns	r3, r3
  63 003a 1A40     		ands	r2, r2, r3
  64 003c 039B     		ldr	r3, [sp, #12]
  65 003e 5A60     		str	r2, [r3, #4]
  66              		.loc 1 26 0
  67 0040 019B     		ldr	r3, [sp, #4]
  68 0042 192B     		cmp	r3, #25
  69 0044 17D0     		beq	.L3
  70 0046 322B     		cmp	r3, #50
  71 0048 28D0     		beq	.L4
  72 004a 022B     		cmp	r3, #2
  73 004c 39D1     		bne	.L7
  74              		.loc 1 29 0
  75 004e 039B     		ldr	r3, [sp, #12]
  76 0050 9A68     		ldr	r2, [r3, #8]
  77 0052 029B     		ldr	r3, [sp, #8]
  78 0054 5B00     		lsls	r3, r3, #1
  79 0056 0121     		movs	r1, #1
  80 0058 01FA03F3 		lsl	r3, r1, r3
  81 005c DB43     		mvns	r3, r3
  82 005e 1A40     		ands	r2, r2, r3
  83 0060 029B     		ldr	r3, [sp, #8]
  84 0062 5B00     		lsls	r3, r3, #1
  85 0064 0133     		adds	r3, r3, #1
  86 0066 0121     		movs	r1, #1
  87 0068 01FA03F3 		lsl	r3, r1, r3
  88 006c DB43     		mvns	r3, r3
  89 006e 1A40     		ands	r2, r2, r3
  90 0070 039B     		ldr	r3, [sp, #12]
  91 0072 9A60     		str	r2, [r3, #8]
  92              		.loc 1 30 0
  93 0074 36E0     		b	.L6
  94              	.L3:
  95              		.loc 1 33 0
  96 0076 039B     		ldr	r3, [sp, #12]
  97 0078 9A68     		ldr	r2, [r3, #8]
  98 007a 029B     		ldr	r3, [sp, #8]
  99 007c 5B00     		lsls	r3, r3, #1
 100 007e 0133     		adds	r3, r3, #1
 101 0080 0121     		movs	r1, #1
 102 0082 01FA03F3 		lsl	r3, r1, r3
 103 0086 DB43     		mvns	r3, r3
 104 0088 1A40     		ands	r2, r2, r3
 105 008a 029B     		ldr	r3, [sp, #8]
 106 008c 5B00     		lsls	r3, r3, #1
 107 008e 0121     		movs	r1, #1
 108 0090 01FA03F3 		lsl	r3, r1, r3
 109 0094 1A43     		orrs	r2, r2, r3
 110 0096 039B     		ldr	r3, [sp, #12]
 111 0098 9A60     		str	r2, [r3, #8]
 112              		.loc 1 34 0
 113 009a 23E0     		b	.L6
 114              	.L4:
ARM GAS  c:\Tmp\ccUqTRgl.s 			page 3


 115              		.loc 1 37 0
 116 009c 039B     		ldr	r3, [sp, #12]
 117 009e 9A68     		ldr	r2, [r3, #8]
 118 00a0 029B     		ldr	r3, [sp, #8]
 119 00a2 5B00     		lsls	r3, r3, #1
 120 00a4 0133     		adds	r3, r3, #1
 121 00a6 0121     		movs	r1, #1
 122 00a8 01FA03F3 		lsl	r3, r1, r3
 123 00ac 1A43     		orrs	r2, r2, r3
 124 00ae 029B     		ldr	r3, [sp, #8]
 125 00b0 5B00     		lsls	r3, r3, #1
 126 00b2 0121     		movs	r1, #1
 127 00b4 01FA03F3 		lsl	r3, r1, r3
 128 00b8 DB43     		mvns	r3, r3
 129 00ba 1A40     		ands	r2, r2, r3
 130 00bc 039B     		ldr	r3, [sp, #12]
 131 00be 9A60     		str	r2, [r3, #8]
 132              		.loc 1 38 0
 133 00c0 10E0     		b	.L6
 134              	.L7:
 135              		.loc 1 41 0
 136 00c2 039B     		ldr	r3, [sp, #12]
 137 00c4 9A68     		ldr	r2, [r3, #8]
 138 00c6 029B     		ldr	r3, [sp, #8]
 139 00c8 5B00     		lsls	r3, r3, #1
 140 00ca 0121     		movs	r1, #1
 141 00cc 01FA03F3 		lsl	r3, r1, r3
 142 00d0 1A43     		orrs	r2, r2, r3
 143 00d2 029B     		ldr	r3, [sp, #8]
 144 00d4 5B00     		lsls	r3, r3, #1
 145 00d6 0133     		adds	r3, r3, #1
 146 00d8 0121     		movs	r1, #1
 147 00da 01FA03F3 		lsl	r3, r1, r3
 148 00de 1A43     		orrs	r2, r2, r3
 149 00e0 039B     		ldr	r3, [sp, #12]
 150 00e2 9A60     		str	r2, [r3, #8]
 151              	.L6:
 152              		.loc 1 46 0
 153 00e4 039B     		ldr	r3, [sp, #12]
 154 00e6 DA68     		ldr	r2, [r3, #12]
 155 00e8 029B     		ldr	r3, [sp, #8]
 156 00ea 5B00     		lsls	r3, r3, #1
 157 00ec 0121     		movs	r1, #1
 158 00ee 01FA03F3 		lsl	r3, r1, r3
 159 00f2 DB43     		mvns	r3, r3
 160 00f4 1A40     		ands	r2, r2, r3
 161 00f6 029B     		ldr	r3, [sp, #8]
 162 00f8 5B00     		lsls	r3, r3, #1
 163 00fa 0133     		adds	r3, r3, #1
 164 00fc 0121     		movs	r1, #1
 165 00fe 01FA03F3 		lsl	r3, r1, r3
 166 0102 DB43     		mvns	r3, r3
 167 0104 1A40     		ands	r2, r2, r3
 168 0106 039B     		ldr	r3, [sp, #12]
 169 0108 DA60     		str	r2, [r3, #12]
 170              		.loc 1 50 0
 171 010a 0122     		movs	r2, #1
ARM GAS  c:\Tmp\ccUqTRgl.s 			page 4


 172 010c 029B     		ldr	r3, [sp, #8]
 173 010e 02FA03F3 		lsl	r3, r2, r3
 174 0112 9AB2     		uxth	r2, r3
 175 0114 039B     		ldr	r3, [sp, #12]
 176 0116 5A83     		strh	r2, [r3, #26]	@ movhi
 177              		.loc 1 51 0
 178 0118 04B0     		add	sp, sp, #16
 179              		@ sp needed
 180 011a 7047     		bx	lr
 181              		.cfi_endproc
 182              	.LFE118:
 183              		.size	GPIO_ModePushPull, .-GPIO_ModePushPull
 184 011c AFF30080 		.section	.text.GPIO_ModeInput,"ax",%progbits
 185              		.align	2
 186              		.p2align 4,,15
 187              		.thumb
 188              		.thumb_func
 189              		.type	GPIO_ModeInput, %function
 190              	GPIO_ModeInput:
 191              	.LFB119:
 192              		.loc 1 55 0
 193              		.cfi_startproc
 194              		@ args = 0, pretend = 0, frame = 8
 195              		@ frame_needed = 0, uses_anonymous_args = 0
 196              		@ link register save eliminated.
 197 0000 82B0     		sub	sp, sp, #8
 198              		.cfi_def_cfa_offset 8
 199 0002 0190     		str	r0, [sp, #4]
 200 0004 0091     		str	r1, [sp]
 201              		.loc 1 57 0
 202 0006 019B     		ldr	r3, [sp, #4]
 203 0008 1A68     		ldr	r2, [r3]
 204 000a 009B     		ldr	r3, [sp]
 205 000c 5B00     		lsls	r3, r3, #1
 206 000e 0133     		adds	r3, r3, #1
 207 0010 0121     		movs	r1, #1
 208 0012 01FA03F3 		lsl	r3, r1, r3
 209 0016 DB43     		mvns	r3, r3
 210 0018 1A40     		ands	r2, r2, r3
 211 001a 009B     		ldr	r3, [sp]
 212 001c 5B00     		lsls	r3, r3, #1
 213 001e 0121     		movs	r1, #1
 214 0020 01FA03F3 		lsl	r3, r1, r3
 215 0024 DB43     		mvns	r3, r3
 216 0026 1A40     		ands	r2, r2, r3
 217 0028 019B     		ldr	r3, [sp, #4]
 218 002a 1A60     		str	r2, [r3]
 219              		.loc 1 60 0
 220 002c 019B     		ldr	r3, [sp, #4]
 221 002e DA68     		ldr	r2, [r3, #12]
 222 0030 009B     		ldr	r3, [sp]
 223 0032 5B00     		lsls	r3, r3, #1
 224 0034 0121     		movs	r1, #1
 225 0036 01FA03F3 		lsl	r3, r1, r3
 226 003a DB43     		mvns	r3, r3
 227 003c 1A40     		ands	r2, r2, r3
 228 003e 009B     		ldr	r3, [sp]
ARM GAS  c:\Tmp\ccUqTRgl.s 			page 5


 229 0040 5B00     		lsls	r3, r3, #1
 230 0042 0133     		adds	r3, r3, #1
 231 0044 0121     		movs	r1, #1
 232 0046 01FA03F3 		lsl	r3, r1, r3
 233 004a DB43     		mvns	r3, r3
 234 004c 1A40     		ands	r2, r2, r3
 235 004e 019B     		ldr	r3, [sp, #4]
 236 0050 DA60     		str	r2, [r3, #12]
 237              		.loc 1 62 0
 238 0052 02B0     		add	sp, sp, #8
 239              		@ sp needed
 240 0054 7047     		bx	lr
 241              		.cfi_endproc
 242              	.LFE119:
 243              		.size	GPIO_ModeInput, .-GPIO_ModeInput
 244 0056 00BFAFF3 		.section	.bss.clkThread,"aw",%nobits
 244      0080AFF3 
 244      0080
 245              		.align	3
 246              		.type	clkThread, %object
 247              		.size	clkThread, 432
 248              	clkThread:
 249 0000 00000000 		.space	432
 249      00000000 
 249      00000000 
 249      00000000 
 249      00000000 
 250              		.global	semafC
 251              		.section	.bss.semafC,"aw",%nobits
 252              		.align	2
 253              		.type	semafC, %object
 254              		.size	semafC, 12
 255              	semafC:
 256 0000 00000000 		.space	12
 256      00000000 
 256      00000000 
 257              		.global	clk_generate
 258              		.section	.bss.clk_generate,"aw",%nobits
 259              		.align	2
 260              		.type	clk_generate, %object
 261              		.size	clk_generate, 4
 262              	clk_generate:
 263 0000 00000000 		.space	4
 264              		.section	.text.clkGeneration,"ax",%progbits
 265              		.align	2
 266              		.p2align 4,,15
 267              		.thumb
 268              		.thumb_func
 269              		.type	clkGeneration, %function
 270              	clkGeneration:
 271              	.LFB120:
 272              		.loc 1 75 0
 273              		.cfi_startproc
 274              		@ args = 0, pretend = 0, frame = 0
 275              		@ frame_needed = 0, uses_anonymous_args = 0
 276 0000 08B5     		push	{r3, lr}
 277              		.cfi_def_cfa_offset 8
ARM GAS  c:\Tmp\ccUqTRgl.s 			page 6


 278              		.cfi_offset 3, -8
 279              		.cfi_offset 14, -4
 280              	.L15:
 281              		.loc 1 79 0
 282 0002 184B     		ldr	r3, .L16
 283 0004 1B68     		ldr	r3, [r3]
 284 0006 002B     		cmp	r3, #0
 285 0008 24D0     		beq	.L10
 286              		.loc 1 82 0
 287 000a 174B     		ldr	r3, .L16+4
 288 000c 164A     		ldr	r2, .L16+4
 289 000e 5269     		ldr	r2, [r2, #20]
 290 0010 82F08002 		eor	r2, r2, #128
 291 0014 5A61     		str	r2, [r3, #20]
 292              		.loc 1 84 0
 293 0016 144B     		ldr	r3, .L16+4
 294 0018 5B69     		ldr	r3, [r3, #20]
 295 001a DB09     		lsrs	r3, r3, #7
 296 001c 03F00103 		and	r3, r3, #1
 297 0020 002B     		cmp	r3, #0
 298 0022 0FD1     		bne	.L11
 299              	.LBB2:
 300              		.loc 1 87 0
 301 0024 2023     		movs	r3, #32
 302              	@ 87 "comms.c" 1
 303 0026 83F31188 		msr     BASEPRI, r3
 304              	@ 0 "" 2
 305              		.thumb
 306              	.LBE2:
 307 002a 104B     		ldr	r3, .L16+8
 308 002c 9B68     		ldr	r3, [r3, #8]
 309 002e 002B     		cmp	r3, #0
 310 0030 02DC     		bgt	.L12
 311              		.loc 1 87 0 is_stmt 0 discriminator 1
 312 0032 0E48     		ldr	r0, .L16+8
 313 0034 FFF7FEFF 		bl	chSemSignalI
 314              	.L12:
 315              		.loc 1 87 0 discriminator 2
 316 0038 FFF7FEFF 		bl	chSchRescheduleS
 317              	.LBB3:
 318 003c 0023     		movs	r3, #0
 319              	@ 87 "comms.c" 1
 320 003e 83F31188 		msr     BASEPRI, r3
 321              	@ 0 "" 2
 322              		.thumb
 323              	.LBE3:
 324 0042 02E0     		b	.L13
 325              	.L11:
 326              		.loc 1 91 0 is_stmt 1
 327 0044 0948     		ldr	r0, .L16+8
 328 0046 FFF7FEFF 		bl	chSemWait
 329              	.L13:
 330              		.loc 1 94 0 discriminator 1
 331 004a 4FF47A70 		mov	r0, #1000
 332 004e FFF7FEFF 		bl	gptDelayUs
 333              		.loc 1 101 0 discriminator 1
 334 0052 D6E7     		b	.L15
ARM GAS  c:\Tmp\ccUqTRgl.s 			page 7


 335              	.L10:
 336              		.loc 1 99 0
 337 0054 044B     		ldr	r3, .L16+4
 338 0056 044A     		ldr	r2, .L16+4
 339 0058 5269     		ldr	r2, [r2, #20]
 340 005a 42F08002 		orr	r2, r2, #128
 341 005e 5A61     		str	r2, [r3, #20]
 342              		.loc 1 101 0
 343 0060 CFE7     		b	.L15
 344              	.L17:
 345 0062 00BF     		.align	2
 346              	.L16:
 347 0064 00000000 		.word	clk_generate
 348 0068 00040240 		.word	1073873920
 349 006c 00000000 		.word	semafC
 350              		.cfi_endproc
 351              	.LFE120:
 352              		.size	clkGeneration, .-clkGeneration
 353              		.section	.text.initComms,"ax",%progbits
 354              		.align	2
 355              		.p2align 4,,15
 356              		.global	initComms
 357              		.thumb
 358              		.thumb_func
 359              		.type	initComms, %function
 360              	initComms:
 361              	.LFB121:
 362              		.loc 1 105 0
 363              		.cfi_startproc
 364              		@ args = 0, pretend = 0, frame = 0
 365              		@ frame_needed = 0, uses_anonymous_args = 0
 366 0000 00B5     		push	{lr}
 367              		.cfi_def_cfa_offset 4
 368              		.cfi_offset 14, -4
 369 0002 83B0     		sub	sp, sp, #12
 370              		.cfi_def_cfa_offset 16
 371              		.loc 1 108 0
 372 0004 FFF7FEFF 		bl	LCD_Init
 373              		.loc 1 111 0
 374 0008 0023     		movs	r3, #0
 375 000a 0093     		str	r3, [sp]
 376 000c 2948     		ldr	r0, .L19
 377 000e 4FF4D871 		mov	r1, #432
 378 0012 4022     		movs	r2, #64
 379 0014 284B     		ldr	r3, .L19+4
 380 0016 FFF7FEFF 		bl	chThdCreateStatic
 381              		.loc 1 114 0
 382 001a 2848     		ldr	r0, .L19+8
 383 001c 0F21     		movs	r1, #15
 384 001e 0022     		movs	r2, #0
 385 0020 FFF7FEFF 		bl	GPIO_ModePushPull
 386              		.loc 1 115 0
 387 0024 2648     		ldr	r0, .L19+12
 388 0026 0721     		movs	r1, #7
 389 0028 0022     		movs	r2, #0
 390 002a FFF7FEFF 		bl	GPIO_ModePushPull
 391              		.loc 1 118 0
ARM GAS  c:\Tmp\ccUqTRgl.s 			page 8


 392 002e 2348     		ldr	r0, .L19+8
 393 0030 0D21     		movs	r1, #13
 394 0032 FFF7FEFF 		bl	GPIO_ModeInput
 395              		.loc 1 119 0
 396 0036 2248     		ldr	r0, .L19+12
 397 0038 0521     		movs	r1, #5
 398 003a FFF7FEFF 		bl	GPIO_ModeInput
 399              		.loc 1 123 0
 400 003e 214B     		ldr	r3, .L19+16
 401 0040 204A     		ldr	r2, .L19+16
 402 0042 526C     		ldr	r2, [r2, #68]
 403 0044 42F48042 		orr	r2, r2, #16384
 404 0048 5A64     		str	r2, [r3, #68]
 405              		.loc 1 128 0
 406 004a 1F4B     		ldr	r3, .L19+20
 407 004c 1E4A     		ldr	r2, .L19+20
 408 004e 5269     		ldr	r2, [r2, #20]
 409 0050 22F0F002 		bic	r2, r2, #240
 410 0054 42F02002 		orr	r2, r2, #32
 411 0058 5A61     		str	r2, [r3, #20]
 412              		.loc 1 131 0
 413 005a 1C4B     		ldr	r3, .L19+24
 414 005c 1B4A     		ldr	r2, .L19+24
 415 005e 1268     		ldr	r2, [r2]
 416 0060 42F40052 		orr	r2, r2, #8192
 417 0064 1A60     		str	r2, [r3]
 418              		.loc 1 134 0
 419 0066 194B     		ldr	r3, .L19+24
 420 0068 184A     		ldr	r2, .L19+24
 421 006a 9268     		ldr	r2, [r2, #8]
 422 006c 42F40052 		orr	r2, r2, #8192
 423 0070 9A60     		str	r2, [r3, #8]
 424              		.loc 1 135 0
 425 0072 164B     		ldr	r3, .L19+24
 426 0074 154A     		ldr	r2, .L19+24
 427 0076 D268     		ldr	r2, [r2, #12]
 428 0078 42F40052 		orr	r2, r2, #8192
 429 007c DA60     		str	r2, [r3, #12]
 430              		.loc 1 138 0
 431 007e 134B     		ldr	r3, .L19+24
 432 0080 4FF40052 		mov	r2, #8192
 433 0084 5A61     		str	r2, [r3, #20]
 434              		.loc 1 141 0
 435 0086 2820     		movs	r0, #40
 436 0088 6021     		movs	r1, #96
 437 008a FFF7FEFF 		bl	nvicEnableVector
 438              		.loc 1 144 0
 439 008e 0C4B     		ldr	r3, .L19+12
 440 0090 0B4A     		ldr	r2, .L19+12
 441 0092 5269     		ldr	r2, [r2, #20]
 442 0094 42F08002 		orr	r2, r2, #128
 443 0098 5A61     		str	r2, [r3, #20]
 444              		.loc 1 145 0
 445 009a 084B     		ldr	r3, .L19+8
 446 009c 074A     		ldr	r2, .L19+8
 447 009e 5269     		ldr	r2, [r2, #20]
 448 00a0 42F40042 		orr	r2, r2, #32768
ARM GAS  c:\Tmp\ccUqTRgl.s 			page 9


 449 00a4 5A61     		str	r2, [r3, #20]
 450              		.loc 1 148 0
 451 00a6 0A48     		ldr	r0, .L19+28
 452 00a8 0121     		movs	r1, #1
 453 00aa FFF7FEFF 		bl	chSemInit
 454              		.loc 1 150 0
 455 00ae 03B0     		add	sp, sp, #12
 456              		@ sp needed
 457 00b0 5DF804FB 		ldr	pc, [sp], #4
 458              	.L20:
 459              		.align	2
 460              	.L19:
 461 00b4 00000000 		.word	clkThread
 462 00b8 00000000 		.word	clkGeneration
 463 00bc 00080240 		.word	1073874944
 464 00c0 00040240 		.word	1073873920
 465 00c4 00380240 		.word	1073887232
 466 00c8 00380140 		.word	1073821696
 467 00cc 003C0140 		.word	1073822720
 468 00d0 00000000 		.word	semafC
 469              		.cfi_endproc
 470              	.LFE121:
 471              		.size	initComms, .-initComms
 472 00d4 AFF30080 		.section	.text.sendMessage,"ax",%progbits
 472      AFF30080 
 472      AFF30080 
 473              		.align	2
 474              		.p2align 4,,15
 475              		.global	sendMessage
 476              		.thumb
 477              		.thumb_func
 478              		.type	sendMessage, %function
 479              	sendMessage:
 480              	.LFB122:
 481              		.loc 1 156 0
 482              		.cfi_startproc
 483              		@ args = 0, pretend = 0, frame = 16
 484              		@ frame_needed = 0, uses_anonymous_args = 0
 485 0000 00B5     		push	{lr}
 486              		.cfi_def_cfa_offset 4
 487              		.cfi_offset 14, -4
 488 0002 85B0     		sub	sp, sp, #20
 489              		.cfi_def_cfa_offset 24
 490 0004 0190     		str	r0, [sp, #4]
 491              		.loc 1 161 0
 492 0006 394B     		ldr	r3, .L32
 493 0008 384A     		ldr	r2, .L32
 494 000a 5269     		ldr	r2, [r2, #20]
 495 000c 22F40042 		bic	r2, r2, #32768
 496 0010 5A61     		str	r2, [r3, #20]
 497              		.loc 1 164 0
 498 0012 374B     		ldr	r3, .L32+4
 499 0014 0122     		movs	r2, #1
 500 0016 1A60     		str	r2, [r3]
 501              		.loc 1 171 0
 502 0018 36E0     		b	.L22
 503              	.L28:
ARM GAS  c:\Tmp\ccUqTRgl.s 			page 10


 504              		.loc 1 174 0
 505 001a 019B     		ldr	r3, [sp, #4]
 506 001c 5A1C     		adds	r2, r3, #1
 507 001e 0192     		str	r2, [sp, #4]
 508 0020 1B78     		ldrb	r3, [r3]
 509 0022 8DF80B30 		strb	r3, [sp, #11]
 510              		.loc 1 177 0
 511 0026 0023     		movs	r3, #0
 512 0028 0393     		str	r3, [sp, #12]
 513 002a 2AE0     		b	.L23
 514              	.L27:
 515              		.loc 1 179 0
 516 002c 3148     		ldr	r0, .L32+8
 517 002e FFF7FEFF 		bl	chSemWait
 518              		.loc 1 181 0
 519 0032 9DF80B20 		ldrb	r2, [sp, #11]	@ zero_extendqisi2
 520 0036 039B     		ldr	r3, [sp, #12]
 521 0038 42FA03F3 		asr	r3, r2, r3
 522 003c 03F00103 		and	r3, r3, #1
 523 0040 002B     		cmp	r3, #0
 524 0042 06D1     		bne	.L24
 525              		.loc 1 182 0
 526 0044 294B     		ldr	r3, .L32
 527 0046 294A     		ldr	r2, .L32
 528 0048 5269     		ldr	r2, [r2, #20]
 529 004a 22F40042 		bic	r2, r2, #32768
 530 004e 5A61     		str	r2, [r3, #20]
 531 0050 05E0     		b	.L25
 532              	.L24:
 533              		.loc 1 184 0
 534 0052 264B     		ldr	r3, .L32
 535 0054 254A     		ldr	r2, .L32
 536 0056 5269     		ldr	r2, [r2, #20]
 537 0058 42F40042 		orr	r2, r2, #32768
 538 005c 5A61     		str	r2, [r3, #20]
 539              	.L25:
 540              	.LBB4:
 541              		.loc 1 187 0
 542 005e 2023     		movs	r3, #32
 543              	@ 187 "comms.c" 1
 544 0060 83F31188 		msr     BASEPRI, r3
 545              	@ 0 "" 2
 546              		.thumb
 547              	.LBE4:
 548 0064 234B     		ldr	r3, .L32+8
 549 0066 9B68     		ldr	r3, [r3, #8]
 550 0068 002B     		cmp	r3, #0
 551 006a 02DC     		bgt	.L26
 552              		.loc 1 187 0 is_stmt 0 discriminator 1
 553 006c 2148     		ldr	r0, .L32+8
 554 006e FFF7FEFF 		bl	chSemSignalI
 555              	.L26:
 556              		.loc 1 187 0 discriminator 2
 557 0072 FFF7FEFF 		bl	chSchRescheduleS
 558              	.LBB5:
 559 0076 0023     		movs	r3, #0
 560              	@ 187 "comms.c" 1
ARM GAS  c:\Tmp\ccUqTRgl.s 			page 11


 561 0078 83F31188 		msr     BASEPRI, r3
 562              	@ 0 "" 2
 563              		.thumb
 564              	.LBE5:
 565              		.loc 1 177 0 is_stmt 1 discriminator 2
 566 007c 039B     		ldr	r3, [sp, #12]
 567 007e 0133     		adds	r3, r3, #1
 568 0080 0393     		str	r3, [sp, #12]
 569              	.L23:
 570              		.loc 1 177 0 is_stmt 0 discriminator 1
 571 0082 039B     		ldr	r3, [sp, #12]
 572 0084 072B     		cmp	r3, #7
 573 0086 D1DD     		ble	.L27
 574              	.L22:
 575              		.loc 1 171 0 is_stmt 1 discriminator 1
 576 0088 019B     		ldr	r3, [sp, #4]
 577 008a 1B78     		ldrb	r3, [r3]	@ zero_extendqisi2
 578 008c 002B     		cmp	r3, #0
 579 008e C4D1     		bne	.L28
 580              		.loc 1 192 0
 581 0090 0023     		movs	r3, #0
 582 0092 0393     		str	r3, [sp, #12]
 583 0094 1AE0     		b	.L29
 584              	.L31:
 585              		.loc 1 194 0
 586 0096 1748     		ldr	r0, .L32+8
 587 0098 FFF7FEFF 		bl	chSemWait
 588              		.loc 1 195 0
 589 009c 134B     		ldr	r3, .L32
 590 009e 134A     		ldr	r2, .L32
 591 00a0 5269     		ldr	r2, [r2, #20]
 592 00a2 42F40042 		orr	r2, r2, #32768
 593 00a6 5A61     		str	r2, [r3, #20]
 594              	.LBB6:
 595              		.loc 1 196 0
 596 00a8 2023     		movs	r3, #32
 597              	@ 196 "comms.c" 1
 598 00aa 83F31188 		msr     BASEPRI, r3
 599              	@ 0 "" 2
 600              		.thumb
 601              	.LBE6:
 602 00ae 114B     		ldr	r3, .L32+8
 603 00b0 9B68     		ldr	r3, [r3, #8]
 604 00b2 002B     		cmp	r3, #0
 605 00b4 02DC     		bgt	.L30
 606              		.loc 1 196 0 is_stmt 0 discriminator 1
 607 00b6 0F48     		ldr	r0, .L32+8
 608 00b8 FFF7FEFF 		bl	chSemSignalI
 609              	.L30:
 610              		.loc 1 196 0 discriminator 2
 611 00bc FFF7FEFF 		bl	chSchRescheduleS
 612              	.LBB7:
 613 00c0 0023     		movs	r3, #0
 614              	@ 196 "comms.c" 1
 615 00c2 83F31188 		msr     BASEPRI, r3
 616              	@ 0 "" 2
 617              		.thumb
ARM GAS  c:\Tmp\ccUqTRgl.s 			page 12


 618              	.LBE7:
 619              		.loc 1 192 0 is_stmt 1 discriminator 2
 620 00c6 039B     		ldr	r3, [sp, #12]
 621 00c8 0133     		adds	r3, r3, #1
 622 00ca 0393     		str	r3, [sp, #12]
 623              	.L29:
 624              		.loc 1 192 0 is_stmt 0 discriminator 1
 625 00cc 039B     		ldr	r3, [sp, #12]
 626 00ce 072B     		cmp	r3, #7
 627 00d0 E1DD     		ble	.L31
 628              		.loc 1 200 0 is_stmt 1
 629 00d2 074B     		ldr	r3, .L32+4
 630 00d4 0022     		movs	r2, #0
 631 00d6 1A60     		str	r2, [r3]
 632              		.loc 1 203 0
 633 00d8 044B     		ldr	r3, .L32
 634 00da 044A     		ldr	r2, .L32
 635 00dc 5269     		ldr	r2, [r2, #20]
 636 00de 42F40042 		orr	r2, r2, #32768
 637 00e2 5A61     		str	r2, [r3, #20]
 638              		.loc 1 205 0
 639 00e4 05B0     		add	sp, sp, #20
 640              		@ sp needed
 641 00e6 5DF804FB 		ldr	pc, [sp], #4
 642              	.L33:
 643 00ea 00BF     		.align	2
 644              	.L32:
 645 00ec 00080240 		.word	1073874944
 646 00f0 00000000 		.word	clk_generate
 647 00f4 00000000 		.word	semafC
 648              		.cfi_endproc
 649              	.LFE122:
 650              		.size	sendMessage, .-sendMessage
 651              		.global	received_message
 652 00f8 AFF30080 		.section	.bss.received_message,"aw",%nobits
 652      AFF30080 
 653              		.align	2
 654              		.type	received_message, %object
 655              		.size	received_message, 256
 656              	received_message:
 657 0000 00000000 		.space	256
 657      00000000 
 657      00000000 
 657      00000000 
 657      00000000 
 658              		.global	current_pos
 659              		.section	.data.current_pos,"aw",%progbits
 660              		.align	2
 661              		.type	current_pos, %object
 662              		.size	current_pos, 4
 663              	current_pos:
 664 0000 00000000 		.word	received_message
 665              		.section	.rodata
 666              		.align	2
 667              	.LC0:
 668 0000 6B00     		.ascii	"k\000"
 669 0002 0000     		.section	.text.processMessage,"ax",%progbits
ARM GAS  c:\Tmp\ccUqTRgl.s 			page 13


 670              		.align	2
 671              		.p2align 4,,15
 672              		.thumb
 673              		.thumb_func
 674              		.type	processMessage, %function
 675              	processMessage:
 676              	.LFB123:
 677              		.loc 1 228 0
 678              		.cfi_startproc
 679              		@ args = 0, pretend = 0, frame = 48
 680              		@ frame_needed = 0, uses_anonymous_args = 0
 681 0000 00B5     		push	{lr}
 682              		.cfi_def_cfa_offset 4
 683              		.cfi_offset 14, -4
 684 0002 8DB0     		sub	sp, sp, #52
 685              		.cfi_def_cfa_offset 56
 686              		.loc 1 231 0
 687 0004 0023     		movs	r3, #0
 688 0006 8DF82F30 		strb	r3, [sp, #47]
 689              		.loc 1 233 0
 690 000a 2848     		ldr	r0, .L39
 691 000c FFF7FEFF 		bl	LCD_SendString
 692              		.loc 1 237 0
 693 0010 274B     		ldr	r3, .L39+4
 694 0012 284A     		ldr	r2, .L39+8
 695 0014 1A60     		str	r2, [r3]
 696              		.loc 1 241 0
 697 0016 0023     		movs	r3, #0
 698 0018 0A93     		str	r3, [sp, #40]
 699              		.loc 1 242 0
 700 001a 0023     		movs	r3, #0
 701 001c 0993     		str	r3, [sp, #36]
 702              		.loc 1 245 0
 703 001e 35E0     		b	.L35
 704              	.L38:
 705              		.loc 1 247 0
 706 0020 234B     		ldr	r3, .L39+4
 707 0022 1B68     		ldr	r3, [r3]
 708 0024 1B78     		ldrb	r3, [r3]
 709 0026 DBB2     		uxtb	r3, r3
 710 0028 5AB2     		sxtb	r2, r3
 711 002a 0A9B     		ldr	r3, [sp, #40]
 712 002c 02FA03F3 		lsl	r3, r2, r3
 713 0030 DAB2     		uxtb	r2, r3
 714 0032 9DF82F30 		ldrb	r3, [sp, #47]	@ zero_extendqisi2
 715 0036 1343     		orrs	r3, r3, r2
 716 0038 DBB2     		uxtb	r3, r3
 717 003a 8DF82F30 		strb	r3, [sp, #47]
 718              		.loc 1 248 0
 719 003e 0A9B     		ldr	r3, [sp, #40]
 720 0040 5A1C     		adds	r2, r3, #1
 721 0042 1D4B     		ldr	r3, .L39+12
 722 0044 1340     		ands	r3, r3, r2
 723 0046 002B     		cmp	r3, #0
 724 0048 03DA     		bge	.L36
 725 004a 013B     		subs	r3, r3, #1
 726 004c 63F00703 		orn	r3, r3, #7
ARM GAS  c:\Tmp\ccUqTRgl.s 			page 14


 727 0050 0133     		adds	r3, r3, #1
 728              	.L36:
 729 0052 0A93     		str	r3, [sp, #40]
 730              		.loc 1 249 0
 731 0054 9DF82F30 		ldrb	r3, [sp, #47]	@ zero_extendqisi2
 732 0058 1846     		mov	r0, r3
 733 005a FFF7FEFF 		bl	LCD_SendChar
 734              		.loc 1 250 0
 735 005e 2020     		movs	r0, #32
 736 0060 FFF7FEFF 		bl	LCD_SendChar
 737              		.loc 1 251 0
 738 0064 0A9B     		ldr	r3, [sp, #40]
 739 0066 002B     		cmp	r3, #0
 740 0068 0BD1     		bne	.L37
 741              		.loc 1 252 0
 742 006a 01AA     		add	r2, sp, #4
 743 006c 099B     		ldr	r3, [sp, #36]
 744 006e 1344     		add	r3, r3, r2
 745 0070 9DF82F20 		ldrb	r2, [sp, #47]
 746 0074 1A70     		strb	r2, [r3]
 747              		.loc 1 253 0
 748 0076 0023     		movs	r3, #0
 749 0078 8DF82F30 		strb	r3, [sp, #47]
 750              		.loc 1 254 0
 751 007c 099B     		ldr	r3, [sp, #36]
 752 007e 0133     		adds	r3, r3, #1
 753 0080 0993     		str	r3, [sp, #36]
 754              	.L37:
 755              		.loc 1 257 0
 756 0082 0B4B     		ldr	r3, .L39+4
 757 0084 1B68     		ldr	r3, [r3]
 758 0086 5A1C     		adds	r2, r3, #1
 759 0088 094B     		ldr	r3, .L39+4
 760 008a 1A60     		str	r2, [r3]
 761              	.L35:
 762              		.loc 1 245 0 discriminator 1
 763 008c 9DF82F30 		ldrb	r3, [sp, #47]	@ zero_extendqisi2
 764 0090 FF2B     		cmp	r3, #255
 765 0092 C5D1     		bne	.L38
 766              		.loc 1 261 0
 767 0094 01AA     		add	r2, sp, #4
 768 0096 099B     		ldr	r3, [sp, #36]
 769 0098 1344     		add	r3, r3, r2
 770 009a 0022     		movs	r2, #0
 771 009c 1A70     		strb	r2, [r3]
 772              		.loc 1 263 0
 773 009e 01AB     		add	r3, sp, #4
 774 00a0 1846     		mov	r0, r3
 775 00a2 FFF7FEFF 		bl	LCD_SendString
 776              		.loc 1 265 0
 777 00a6 0DB0     		add	sp, sp, #52
 778              		@ sp needed
 779 00a8 5DF804FB 		ldr	pc, [sp], #4
 780              	.L40:
 781              		.align	2
 782              	.L39:
 783 00ac 00000000 		.word	.LC0
ARM GAS  c:\Tmp\ccUqTRgl.s 			page 15


 784 00b0 00000000 		.word	current_pos
 785 00b4 00000000 		.word	received_message
 786 00b8 07000080 		.word	-2147483641
 787              		.cfi_endproc
 788              	.LFE123:
 789              		.size	processMessage, .-processMessage
 790 00bc AFF30080 		.section	.text.Vector9C,"ax",%progbits
 791              		.align	2
 792              		.p2align 4,,15
 793              		.global	Vector9C
 794              		.thumb
 795              		.thumb_func
 796              		.type	Vector9C, %function
 797              	Vector9C:
 798              	.LFB124:
 799              		.loc 1 270 0
 800              		.cfi_startproc
 801              		@ args = 0, pretend = 0, frame = 8
 802              		@ frame_needed = 0, uses_anonymous_args = 0
 803 0000 00B5     		push	{lr}
 804              		.cfi_def_cfa_offset 4
 805              		.cfi_offset 14, -4
 806 0002 83B0     		sub	sp, sp, #12
 807              		.cfi_def_cfa_offset 16
 808              		.loc 1 279 0
 809 0004 124B     		ldr	r3, .L42
 810 0006 124A     		ldr	r2, .L42
 811 0008 1268     		ldr	r2, [r2]
 812 000a 22F02002 		bic	r2, r2, #32
 813 000e 1A60     		str	r2, [r3]
 814              		.loc 1 282 0
 815 0010 0F4B     		ldr	r3, .L42
 816 0012 2022     		movs	r2, #32
 817 0014 5A61     		str	r2, [r3, #20]
 818              		.loc 1 287 0
 819 0016 0F4B     		ldr	r3, .L42+4
 820 0018 1B69     		ldr	r3, [r3, #16]
 821 001a 5B0B     		lsrs	r3, r3, #13
 822 001c 0193     		str	r3, [sp, #4]
 823              		.loc 1 288 0
 824 001e 0E4B     		ldr	r3, .L42+8
 825 0020 1B68     		ldr	r3, [r3]
 826 0022 019A     		ldr	r2, [sp, #4]
 827 0024 D2B2     		uxtb	r2, r2
 828 0026 1A70     		strb	r2, [r3]
 829              		.loc 1 289 0
 830 0028 0B4B     		ldr	r3, .L42+8
 831 002a 1B68     		ldr	r3, [r3]
 832 002c 5A1C     		adds	r2, r3, #1
 833 002e 0A4B     		ldr	r3, .L42+8
 834 0030 1A60     		str	r2, [r3]
 835              		.loc 1 293 0
 836 0032 074B     		ldr	r3, .L42
 837 0034 064A     		ldr	r2, .L42
 838 0036 1268     		ldr	r2, [r2]
 839 0038 42F02002 		orr	r2, r2, #32
 840 003c 1A60     		str	r2, [r3]
ARM GAS  c:\Tmp\ccUqTRgl.s 			page 16


 841              		.loc 1 296 0
 842 003e 044B     		ldr	r3, .L42
 843 0040 2022     		movs	r2, #32
 844 0042 5A61     		str	r2, [r3, #20]
 845              		.loc 1 299 0
 846 0044 FFF7FEFF 		bl	_port_irq_epilogue
 847              		.loc 1 301 0
 848 0048 03B0     		add	sp, sp, #12
 849              		@ sp needed
 850 004a 5DF804FB 		ldr	pc, [sp], #4
 851              	.L43:
 852 004e 00BF     		.align	2
 853              	.L42:
 854 0050 003C0140 		.word	1073822720
 855 0054 00080240 		.word	1073874944
 856 0058 00000000 		.word	current_pos
 857              		.cfi_endproc
 858              	.LFE124:
 859              		.size	Vector9C, .-Vector9C
 860 005c AFF30080 		.section	.text.VectorE0,"ax",%progbits
 861              		.align	2
 862              		.p2align 4,,15
 863              		.global	VectorE0
 864              		.thumb
 865              		.thumb_func
 866              		.type	VectorE0, %function
 867              	VectorE0:
 868              	.LFB125:
 869              		.loc 1 310 0
 870              		.cfi_startproc
 871              		@ args = 0, pretend = 0, frame = 0
 872              		@ frame_needed = 0, uses_anonymous_args = 0
 873 0000 08B5     		push	{r3, lr}
 874              		.cfi_def_cfa_offset 8
 875              		.cfi_offset 3, -8
 876              		.cfi_offset 14, -4
 877              		.loc 1 319 0
 878 0002 234B     		ldr	r3, .L47
 879 0004 224A     		ldr	r2, .L47
 880 0006 1268     		ldr	r2, [r2]
 881 0008 22F40052 		bic	r2, r2, #8192
 882 000c 1A60     		str	r2, [r3]
 883              		.loc 1 322 0
 884 000e 204B     		ldr	r3, .L47
 885 0010 4FF40052 		mov	r2, #8192
 886 0014 5A61     		str	r2, [r3, #20]
 887              		.loc 1 328 0
 888 0016 1F4B     		ldr	r3, .L47+4
 889 0018 1B69     		ldr	r3, [r3, #16]
 890 001a 5B09     		lsrs	r3, r3, #5
 891 001c 03F00103 		and	r3, r3, #1
 892 0020 002B     		cmp	r3, #0
 893 0022 27D0     		beq	.L45
 894              		.loc 1 330 0
 895 0024 1C4B     		ldr	r3, .L47+8
 896 0026 1B69     		ldr	r3, [r3, #16]
 897 0028 5B0B     		lsrs	r3, r3, #13
ARM GAS  c:\Tmp\ccUqTRgl.s 			page 17


 898 002a 03F00103 		and	r3, r3, #1
 899 002e 002B     		cmp	r3, #0
 900 0030 1ED1     		bne	.L46
 901              		.loc 1 339 0
 902 0032 1A4B     		ldr	r3, .L47+12
 903 0034 194A     		ldr	r2, .L47+12
 904 0036 D268     		ldr	r2, [r2, #12]
 905 0038 22F0F002 		bic	r2, r2, #240
 906 003c 42F01002 		orr	r2, r2, #16
 907 0040 DA60     		str	r2, [r3, #12]
 908              		.loc 1 341 0
 909 0042 134B     		ldr	r3, .L47
 910 0044 124A     		ldr	r2, .L47
 911 0046 1268     		ldr	r2, [r2]
 912 0048 42F02002 		orr	r2, r2, #32
 913 004c 1A60     		str	r2, [r3]
 914              		.loc 1 343 0
 915 004e 104B     		ldr	r3, .L47
 916 0050 0F4A     		ldr	r2, .L47
 917 0052 9268     		ldr	r2, [r2, #8]
 918 0054 42F02002 		orr	r2, r2, #32
 919 0058 9A60     		str	r2, [r3, #8]
 920              		.loc 1 345 0
 921 005a 0D4B     		ldr	r3, .L47
 922 005c 2022     		movs	r2, #32
 923 005e 5A61     		str	r2, [r3, #20]
 924              		.loc 1 346 0
 925 0060 1720     		movs	r0, #23
 926 0062 6021     		movs	r1, #96
 927 0064 FFF7FEFF 		bl	nvicEnableVector
 928              		.loc 1 349 0
 929 0068 0D4B     		ldr	r3, .L47+16
 930 006a 0E4A     		ldr	r2, .L47+20
 931 006c 1A60     		str	r2, [r3]
 932 006e 01E0     		b	.L45
 933              	.L46:
 934              		.loc 1 355 0
 935 0070 FFF7FEFF 		bl	processMessage
 936              	.L45:
 937              		.loc 1 364 0
 938 0074 064B     		ldr	r3, .L47
 939 0076 064A     		ldr	r2, .L47
 940 0078 1268     		ldr	r2, [r2]
 941 007a 42F40052 		orr	r2, r2, #8192
 942 007e 1A60     		str	r2, [r3]
 943              		.loc 1 367 0
 944 0080 034B     		ldr	r3, .L47
 945 0082 4FF40052 		mov	r2, #8192
 946 0086 5A61     		str	r2, [r3, #20]
 947              		.loc 1 373 0
 948 0088 FFF7FEFF 		bl	_port_irq_epilogue
 949              		.loc 1 375 0
 950 008c 08BD     		pop	{r3, pc}
 951              	.L48:
 952 008e 00BF     		.align	2
 953              	.L47:
 954 0090 003C0140 		.word	1073822720
ARM GAS  c:\Tmp\ccUqTRgl.s 			page 18


 955 0094 00040240 		.word	1073873920
 956 0098 00080240 		.word	1073874944
 957 009c 00380140 		.word	1073821696
 958 00a0 00000000 		.word	current_pos
 959 00a4 00000000 		.word	received_message
 960              		.cfi_endproc
 961              	.LFE125:
 962              		.size	VectorE0, .-VectorE0
 963 00a8 AFF30080 		.text
 963      AFF30080 
 964              	.Letext0:
 965              		.file 2 "c:\\stm32v2\\gnu-arm\\arm-none-eabi\\include\\machine\\_default_types.h"
 966              		.file 3 "c:\\stm32v2\\gnu-arm\\arm-none-eabi\\include\\stdint.h"
 967              		.file 4 "C:/STM32v2/ChibiOS_2.6.2/os/ports/GCC/ARMCMx/chtypes.h"
 968              		.file 5 "C:/STM32v2/ChibiOS_2.6.2/os/kernel/include/chlists.h"
 969              		.file 6 "C:/STM32v2/ChibiOS_2.6.2/os/kernel/include/chthreads.h"
 970              		.file 7 "C:/STM32v2/ChibiOS_2.6.2/os/ports/GCC/ARMCMx/chcore_v7m.h"
 971              		.file 8 "C:/STM32v2/ChibiOS_2.6.2/os/kernel/include/chsem.h"
 972              		.file 9 "C:/STM32v2/ChibiOS_2.6.2/os/kernel/include/chbsem.h"
 973              		.file 10 "C:/STM32v2/ChibiOS_2.6.2/os/kernel/include/chmtx.h"
 974              		.file 11 "C:/STM32v2/ChibiOS_2.6.2/os/hal/platforms/STM32F4xx/stm32f4xx.h"
 975              		.file 12 "C:/STM32v2/ChibiOS_2.6.2/os/hal/platforms/STM32/GPIOv2/pal_lld.h"
 976              		.file 13 "C:/STM32v2/ChibiOS_2.6.2/os/ports/common/ARMCMx/CMSIS/include/core_cm4.h"