ARM GAS  c:\Tmp\cckhUzw7.s 			page 1


   1              		.syntax unified
   2              		.cpu cortex-m4
   3              		.eabi_attribute 27, 3
   4              		.eabi_attribute 28, 1
   5              		.fpu fpv4-sp-d16
   6              		.eabi_attribute 20, 1
   7              		.eabi_attribute 21, 1
   8              		.eabi_attribute 23, 3
   9              		.eabi_attribute 24, 1
  10              		.eabi_attribute 25, 1
  11              		.eabi_attribute 26, 1
  12              		.eabi_attribute 30, 6
  13              		.eabi_attribute 34, 1
  14              		.eabi_attribute 18, 4
  15              		.thumb
  16              		.file	"encoder.c"
  17              		.text
  18              	.Ltext0:
  19              		.cfi_sections	.debug_frame
  20              		.global	count
  21              		.section	.bss.count,"aw",%nobits
  22              		.align	2
  23              		.type	count, %object
  24              		.size	count, 4
  25              	count:
  26 0000 00000000 		.space	4
  27              		.section	.text.initEncoder,"ax",%progbits
  28              		.align	2
  29              		.p2align 4,,15
  30              		.global	initEncoder
  31              		.thumb
  32              		.thumb_func
  33              		.type	initEncoder, %function
  34              	initEncoder:
  35              	.LFB118:
  36              		.file 1 "encoder.c"
  37              		.loc 1 9 0
  38              		.cfi_startproc
  39              		@ args = 0, pretend = 0, frame = 0
  40              		@ frame_needed = 0, uses_anonymous_args = 0
  41 0000 08B5     		push	{r3, lr}
  42              		.cfi_def_cfa_offset 8
  43              		.cfi_offset 3, -8
  44              		.cfi_offset 14, -4
  45              		.loc 1 11 0
  46 0002 1F4B     		ldr	r3, .L2
  47 0004 1E4A     		ldr	r2, .L2
  48 0006 1268     		ldr	r2, [r2]
  49 0008 22F0CC02 		bic	r2, r2, #204
  50 000c 1A60     		str	r2, [r3]
  51              		.loc 1 13 0
  52 000e 1C4B     		ldr	r3, .L2
  53 0010 1B4A     		ldr	r2, .L2
  54 0012 D268     		ldr	r2, [r2, #12]
  55 0014 42F04402 		orr	r2, r2, #68
  56 0018 DA60     		str	r2, [r3, #12]
  57              		.loc 1 14 0
ARM GAS  c:\Tmp\cckhUzw7.s 			page 2


  58 001a 194B     		ldr	r3, .L2
  59 001c 184A     		ldr	r2, .L2
  60 001e D268     		ldr	r2, [r2, #12]
  61 0020 22F08802 		bic	r2, r2, #136
  62 0024 DA60     		str	r2, [r3, #12]
  63              		.loc 1 17 0
  64 0026 174B     		ldr	r3, .L2+4
  65 0028 164A     		ldr	r2, .L2+4
  66 002a 526C     		ldr	r2, [r2, #68]
  67 002c 42F48042 		orr	r2, r2, #16384
  68 0030 5A64     		str	r2, [r3, #68]
  69              		.loc 1 20 0
  70 0032 154A     		ldr	r2, .L2+8
  71 0034 144B     		ldr	r3, .L2+8
  72 0036 9B68     		ldr	r3, [r3, #8]
  73 0038 23F47043 		bic	r3, r3, #61440
  74 003c 23F0F003 		bic	r3, r3, #240
  75 0040 9360     		str	r3, [r2, #8]
  76              		.loc 1 23 0
  77 0042 124B     		ldr	r3, .L2+12
  78 0044 114A     		ldr	r2, .L2+12
  79 0046 9268     		ldr	r2, [r2, #8]
  80 0048 42F00A02 		orr	r2, r2, #10
  81 004c 9A60     		str	r2, [r3, #8]
  82              		.loc 1 24 0
  83 004e 0F4B     		ldr	r3, .L2+12
  84 0050 0E4A     		ldr	r2, .L2+12
  85 0052 D268     		ldr	r2, [r2, #12]
  86 0054 42F00A02 		orr	r2, r2, #10
  87 0058 DA60     		str	r2, [r3, #12]
  88              		.loc 1 27 0
  89 005a 0C4B     		ldr	r3, .L2+12
  90 005c 0A22     		movs	r2, #10
  91 005e 5A61     		str	r2, [r3, #20]
  92              		.loc 1 30 0
  93 0060 0A4B     		ldr	r3, .L2+12
  94 0062 0A4A     		ldr	r2, .L2+12
  95 0064 1268     		ldr	r2, [r2]
  96 0066 42F00202 		orr	r2, r2, #2
  97 006a 1A60     		str	r2, [r3]
  98              		.loc 1 33 0
  99 006c 0720     		movs	r0, #7
 100 006e 6021     		movs	r1, #96
 101 0070 FFF7FEFF 		bl	nvicEnableVector
 102              		.loc 1 34 0
 103 0074 0920     		movs	r0, #9
 104 0076 6021     		movs	r1, #96
 105 0078 FFF7FEFF 		bl	nvicEnableVector
 106              		.loc 1 35 0
 107 007c 08BD     		pop	{r3, pc}
 108              	.L3:
 109 007e 00BF     		.align	2
 110              	.L2:
 111 0080 00000240 		.word	1073872896
 112 0084 00380240 		.word	1073887232
 113 0088 00380140 		.word	1073821696
 114 008c 003C0140 		.word	1073822720
ARM GAS  c:\Tmp\cckhUzw7.s 			page 3


 115              		.cfi_endproc
 116              	.LFE118:
 117              		.size	initEncoder, .-initEncoder
 118              		.section	.text.Vector5C,"ax",%progbits
 119              		.align	2
 120              		.p2align 4,,15
 121              		.global	Vector5C
 122              		.thumb
 123              		.thumb_func
 124              		.type	Vector5C, %function
 125              	Vector5C:
 126              	.LFB119:
 127              		.loc 1 38 0
 128              		.cfi_startproc
 129              		@ args = 0, pretend = 0, frame = 0
 130              		@ frame_needed = 0, uses_anonymous_args = 0
 131 0000 08B5     		push	{r3, lr}
 132              		.cfi_def_cfa_offset 8
 133              		.cfi_offset 3, -8
 134              		.cfi_offset 14, -4
 135              		.loc 1 42 0
 136 0002 164B     		ldr	r3, .L7
 137 0004 154A     		ldr	r2, .L7
 138 0006 1268     		ldr	r2, [r2]
 139 0008 22F00202 		bic	r2, r2, #2
 140 000c 1A60     		str	r2, [r3]
 141              		.loc 1 45 0
 142 000e 134B     		ldr	r3, .L7
 143 0010 0222     		movs	r2, #2
 144 0012 5A61     		str	r2, [r3, #20]
 145              		.loc 1 47 0
 146 0014 124B     		ldr	r3, .L7+4
 147 0016 1B69     		ldr	r3, [r3, #16]
 148 0018 03F00203 		and	r3, r3, #2
 149 001c 002B     		cmp	r3, #0
 150 001e 10D1     		bne	.L5
 151              		.loc 1 48 0
 152 0020 0F4B     		ldr	r3, .L7+4
 153 0022 1B69     		ldr	r3, [r3, #16]
 154 0024 03F00803 		and	r3, r3, #8
 155 0028 002B     		cmp	r3, #0
 156 002a 05D0     		beq	.L6
 157              		.loc 1 48 0 is_stmt 0 discriminator 1
 158 002c 0D4B     		ldr	r3, .L7+8
 159 002e 1B68     		ldr	r3, [r3]
 160 0030 5A1C     		adds	r2, r3, #1
 161 0032 0C4B     		ldr	r3, .L7+8
 162 0034 1A60     		str	r2, [r3]
 163 0036 04E0     		b	.L5
 164              	.L6:
 165              		.loc 1 49 0 is_stmt 1
 166 0038 0A4B     		ldr	r3, .L7+8
 167 003a 1B68     		ldr	r3, [r3]
 168 003c 5A1E     		subs	r2, r3, #1
 169 003e 094B     		ldr	r3, .L7+8
 170 0040 1A60     		str	r2, [r3]
 171              	.L5:
ARM GAS  c:\Tmp\cckhUzw7.s 			page 4


 172              		.loc 1 53 0
 173 0042 064B     		ldr	r3, .L7
 174 0044 054A     		ldr	r2, .L7
 175 0046 1268     		ldr	r2, [r2]
 176 0048 42F00802 		orr	r2, r2, #8
 177 004c 1A60     		str	r2, [r3]
 178              		.loc 1 56 0
 179 004e 034B     		ldr	r3, .L7
 180 0050 0822     		movs	r2, #8
 181 0052 5A61     		str	r2, [r3, #20]
 182              		.loc 1 58 0
 183 0054 FFF7FEFF 		bl	_port_irq_epilogue
 184              		.loc 1 59 0
 185 0058 08BD     		pop	{r3, pc}
 186              	.L8:
 187 005a 00BF     		.align	2
 188              	.L7:
 189 005c 003C0140 		.word	1073822720
 190 0060 00000240 		.word	1073872896
 191 0064 00000000 		.word	count
 192              		.cfi_endproc
 193              	.LFE119:
 194              		.size	Vector5C, .-Vector5C
 195 0068 AFF30080 		.section	.text.Vector64,"ax",%progbits
 195      AFF30080 
 196              		.align	2
 197              		.p2align 4,,15
 198              		.global	Vector64
 199              		.thumb
 200              		.thumb_func
 201              		.type	Vector64, %function
 202              	Vector64:
 203              	.LFB120:
 204              		.loc 1 62 0
 205              		.cfi_startproc
 206              		@ args = 0, pretend = 0, frame = 0
 207              		@ frame_needed = 0, uses_anonymous_args = 0
 208 0000 08B5     		push	{r3, lr}
 209              		.cfi_def_cfa_offset 8
 210              		.cfi_offset 3, -8
 211              		.cfi_offset 14, -4
 212              		.loc 1 66 0
 213 0002 0A4B     		ldr	r3, .L10
 214 0004 094A     		ldr	r2, .L10
 215 0006 1268     		ldr	r2, [r2]
 216 0008 22F00802 		bic	r2, r2, #8
 217 000c 1A60     		str	r2, [r3]
 218              		.loc 1 69 0
 219 000e 074B     		ldr	r3, .L10
 220 0010 0822     		movs	r2, #8
 221 0012 5A61     		str	r2, [r3, #20]
 222              		.loc 1 77 0
 223 0014 054B     		ldr	r3, .L10
 224 0016 054A     		ldr	r2, .L10
 225 0018 1268     		ldr	r2, [r2]
 226 001a 42F00202 		orr	r2, r2, #2
 227 001e 1A60     		str	r2, [r3]
ARM GAS  c:\Tmp\cckhUzw7.s 			page 5


 228              		.loc 1 80 0
 229 0020 024B     		ldr	r3, .L10
 230 0022 0222     		movs	r2, #2
 231 0024 5A61     		str	r2, [r3, #20]
 232              		.loc 1 82 0
 233 0026 FFF7FEFF 		bl	_port_irq_epilogue
 234              		.loc 1 83 0
 235 002a 08BD     		pop	{r3, pc}
 236              	.L11:
 237              		.align	2
 238              	.L10:
 239 002c 003C0140 		.word	1073822720
 240              		.cfi_endproc
 241              	.LFE120:
 242              		.size	Vector64, .-Vector64
 243              		.text
 244              	.Letext0:
 245              		.file 2 "c:\\stm32v2\\gnu-arm\\arm-none-eabi\\include\\machine\\_default_types.h"
 246              		.file 3 "c:\\stm32v2\\gnu-arm\\arm-none-eabi\\include\\stdint.h"
 247              		.file 4 "C:/STM32v2/ChibiOS_2.6.2/os/hal/platforms/STM32F4xx/stm32f4xx.h"
 248              		.file 5 "C:/STM32v2/ChibiOS_2.6.2/os/hal/platforms/STM32/GPIOv2/pal_lld.h"
 249              		.file 6 "C:/STM32v2/ChibiOS_2.6.2/os/ports/common/ARMCMx/CMSIS/include/core_cm4.h"