ARM GAS  c:\Tmp\ccI08m5i.s 			page 1


   1              		.syntax unified
   2              		.cpu cortex-m4
   3              		.eabi_attribute 27, 3
   4              		.eabi_attribute 28, 1
   5              		.fpu fpv4-sp-d16
   6              		.eabi_attribute 20, 1
   7              		.eabi_attribute 21, 1
   8              		.eabi_attribute 23, 3
   9              		.eabi_attribute 24, 1
  10              		.eabi_attribute 25, 1
  11              		.eabi_attribute 26, 1
  12              		.eabi_attribute 30, 6
  13              		.eabi_attribute 34, 1
  14              		.eabi_attribute 18, 4
  15              		.thumb
  16              		.file	"lcd.c"
  17              		.text
  18              	.Ltext0:
  19              		.cfi_sections	.debug_frame
  20              		.section	.text.lcdGPIOInit,"ax",%progbits
  21              		.align	2
  22              		.p2align 4,,15
  23              		.thumb
  24              		.thumb_func
  25              		.type	lcdGPIOInit, %function
  26              	lcdGPIOInit:
  27              	.LFB118:
  28              		.file 1 "lcd.c"
  29              		.loc 1 27 0
  30              		.cfi_startproc
  31              		@ args = 0, pretend = 0, frame = 8
  32              		@ frame_needed = 0, uses_anonymous_args = 0
  33 0000 00B5     		push	{lr}
  34              		.cfi_def_cfa_offset 4
  35              		.cfi_offset 14, -4
  36 0002 83B0     		sub	sp, sp, #12
  37              		.cfi_def_cfa_offset 16
  38              		.loc 1 36 0
  39 0004 0923     		movs	r3, #9
  40 0006 0193     		str	r3, [sp, #4]
  41 0008 06E0     		b	.L2
  42              	.L3:
  43              	.LBB2:
  44              		.loc 1 37 0 discriminator 2
  45 000a 0648     		ldr	r0, .L4
  46 000c 0199     		ldr	r1, [sp, #4]
  47 000e FFF7FEFF 		bl	GPIO_ModePushPull
  48              	.LBE2:
  49              		.loc 1 36 0 discriminator 2
  50 0012 019B     		ldr	r3, [sp, #4]
  51 0014 0133     		adds	r3, r3, #1
  52 0016 0193     		str	r3, [sp, #4]
  53              	.L2:
  54              		.loc 1 36 0 is_stmt 0 discriminator 1
  55 0018 019B     		ldr	r3, [sp, #4]
  56 001a 0F2B     		cmp	r3, #15
  57 001c F5D9     		bls	.L3
ARM GAS  c:\Tmp\ccI08m5i.s 			page 2


  58              		.loc 1 40 0 is_stmt 1
  59 001e 03B0     		add	sp, sp, #12
  60              		@ sp needed
  61 0020 5DF804FB 		ldr	pc, [sp], #4
  62              	.L5:
  63              		.align	2
  64              	.L4:
  65 0024 00100240 		.word	1073876992
  66              		.cfi_endproc
  67              	.LFE118:
  68              		.size	lcdGPIOInit, .-lcdGPIOInit
  69 0028 AFF30080 		.section	.text.GPIO_ModePushPull,"ax",%progbits
  69      AFF30080 
  70              		.align	2
  71              		.p2align 4,,15
  72              		.global	GPIO_ModePushPull
  73              		.thumb
  74              		.thumb_func
  75              		.type	GPIO_ModePushPull, %function
  76              	GPIO_ModePushPull:
  77              	.LFB119:
  78              		.loc 1 43 0
  79              		.cfi_startproc
  80              		@ args = 0, pretend = 0, frame = 8
  81              		@ frame_needed = 0, uses_anonymous_args = 0
  82              		@ link register save eliminated.
  83 0000 82B0     		sub	sp, sp, #8
  84              		.cfi_def_cfa_offset 8
  85 0002 0190     		str	r0, [sp, #4]
  86 0004 0091     		str	r1, [sp]
  87              		.loc 1 44 0
  88 0006 019B     		ldr	r3, [sp, #4]
  89 0008 1A68     		ldr	r2, [r3]
  90 000a 009B     		ldr	r3, [sp]
  91 000c 5B00     		lsls	r3, r3, #1
  92 000e 0121     		movs	r1, #1
  93 0010 01FA03F3 		lsl	r3, r1, r3
  94 0014 1A43     		orrs	r2, r2, r3
  95 0016 019B     		ldr	r3, [sp, #4]
  96 0018 1A60     		str	r2, [r3]
  97              		.loc 1 45 0
  98 001a 019B     		ldr	r3, [sp, #4]
  99 001c 1A68     		ldr	r2, [r3]
 100 001e 009B     		ldr	r3, [sp]
 101 0020 5B00     		lsls	r3, r3, #1
 102 0022 0133     		adds	r3, r3, #1
 103 0024 0121     		movs	r1, #1
 104 0026 01FA03F3 		lsl	r3, r1, r3
 105 002a DB43     		mvns	r3, r3
 106 002c 1A40     		ands	r2, r2, r3
 107 002e 019B     		ldr	r3, [sp, #4]
 108 0030 1A60     		str	r2, [r3]
 109              		.loc 1 46 0
 110 0032 019B     		ldr	r3, [sp, #4]
 111 0034 1A68     		ldr	r2, [r3]
 112 0036 0121     		movs	r1, #1
 113 0038 009B     		ldr	r3, [sp]
ARM GAS  c:\Tmp\ccI08m5i.s 			page 3


 114 003a 01FA03F3 		lsl	r3, r1, r3
 115 003e DB43     		mvns	r3, r3
 116 0040 1A40     		ands	r2, r2, r3
 117 0042 019B     		ldr	r3, [sp, #4]
 118 0044 1A60     		str	r2, [r3]
 119              		.loc 1 47 0
 120 0046 1846     		mov	r0, r3
 121 0048 02B0     		add	sp, sp, #8
 122              		@ sp needed
 123 004a 7047     		bx	lr
 124              		.cfi_endproc
 125              	.LFE119:
 126              		.size	GPIO_ModePushPull, .-GPIO_ModePushPull
 127 004c AFF30080 		.section	.text.lcdNibble,"ax",%progbits
 128              		.align	2
 129              		.p2align 4,,15
 130              		.thumb
 131              		.thumb_func
 132              		.type	lcdNibble, %function
 133              	lcdNibble:
 134              	.LFB120:
 135              		.loc 1 53 0
 136              		.cfi_startproc
 137              		@ args = 0, pretend = 0, frame = 16
 138              		@ frame_needed = 0, uses_anonymous_args = 0
 139 0000 00B5     		push	{lr}
 140              		.cfi_def_cfa_offset 4
 141              		.cfi_offset 14, -4
 142 0002 85B0     		sub	sp, sp, #20
 143              		.cfi_def_cfa_offset 24
 144 0004 0190     		str	r0, [sp, #4]
 145 0006 0091     		str	r1, [sp]
 146              		.loc 1 55 0
 147 0008 4FF48053 		mov	r3, #4096
 148 000c 0293     		str	r3, [sp, #8]
 149              		.loc 1 57 0
 150 000e 0023     		movs	r3, #0
 151 0010 0393     		str	r3, [sp, #12]
 152 0012 18E0     		b	.L8
 153              	.L11:
 154              		.loc 1 58 0
 155 0014 019B     		ldr	r3, [sp, #4]
 156 0016 03F00103 		and	r3, r3, #1
 157 001a 002B     		cmp	r3, #0
 158 001c 04D0     		beq	.L9
 159              		.loc 1 59 0
 160 001e 1B4B     		ldr	r3, .L14
 161 0020 029A     		ldr	r2, [sp, #8]
 162 0022 92B2     		uxth	r2, r2
 163 0024 1A83     		strh	r2, [r3, #24]	@ movhi
 164 0026 03E0     		b	.L10
 165              	.L9:
 166              		.loc 1 61 0
 167 0028 184B     		ldr	r3, .L14
 168 002a 029A     		ldr	r2, [sp, #8]
 169 002c 92B2     		uxth	r2, r2
 170 002e 5A83     		strh	r2, [r3, #26]	@ movhi
ARM GAS  c:\Tmp\ccI08m5i.s 			page 4


 171              	.L10:
 172              		.loc 1 62 0
 173 0030 019B     		ldr	r3, [sp, #4]
 174 0032 DA0F     		lsrs	r2, r3, #31
 175 0034 1344     		add	r3, r3, r2
 176 0036 5B10     		asrs	r3, r3, #1
 177 0038 0193     		str	r3, [sp, #4]
 178              		.loc 1 63 0
 179 003a 029B     		ldr	r3, [sp, #8]
 180 003c 5B00     		lsls	r3, r3, #1
 181 003e 0293     		str	r3, [sp, #8]
 182              		.loc 1 57 0
 183 0040 039B     		ldr	r3, [sp, #12]
 184 0042 0133     		adds	r3, r3, #1
 185 0044 0393     		str	r3, [sp, #12]
 186              	.L8:
 187              		.loc 1 57 0 is_stmt 0 discriminator 1
 188 0046 039B     		ldr	r3, [sp, #12]
 189 0048 032B     		cmp	r3, #3
 190 004a E3D9     		bls	.L11
 191              		.loc 1 66 0 is_stmt 1
 192 004c 009B     		ldr	r3, [sp]
 193 004e 002B     		cmp	r3, #0
 194 0050 04D0     		beq	.L12
 195              		.loc 1 67 0
 196 0052 0E4B     		ldr	r3, .L14
 197 0054 4FF40062 		mov	r2, #2048
 198 0058 1A83     		strh	r2, [r3, #24]	@ movhi
 199 005a 03E0     		b	.L13
 200              	.L12:
 201              		.loc 1 69 0
 202 005c 0B4B     		ldr	r3, .L14
 203 005e 4FF40062 		mov	r2, #2048
 204 0062 5A83     		strh	r2, [r3, #26]	@ movhi
 205              	.L13:
 206              		.loc 1 71 0
 207 0064 0A20     		movs	r0, #10
 208 0066 FFF7FEFF 		bl	gptDelayUs
 209              		.loc 1 72 0
 210 006a 084B     		ldr	r3, .L14
 211 006c 4FF48062 		mov	r2, #1024
 212 0070 1A83     		strh	r2, [r3, #24]	@ movhi
 213              		.loc 1 73 0
 214 0072 0A20     		movs	r0, #10
 215 0074 FFF7FEFF 		bl	gptDelayUs
 216              		.loc 1 74 0
 217 0078 044B     		ldr	r3, .L14
 218 007a 4FF48062 		mov	r2, #1024
 219 007e 5A83     		strh	r2, [r3, #26]	@ movhi
 220              		.loc 1 75 0
 221 0080 0A20     		movs	r0, #10
 222 0082 FFF7FEFF 		bl	gptDelayUs
 223              		.loc 1 79 0
 224 0086 05B0     		add	sp, sp, #20
 225              		@ sp needed
 226 0088 5DF804FB 		ldr	pc, [sp], #4
 227              	.L15:
ARM GAS  c:\Tmp\ccI08m5i.s 			page 5


 228              		.align	2
 229              	.L14:
 230 008c 00100240 		.word	1073876992
 231              		.cfi_endproc
 232              	.LFE120:
 233              		.size	lcdNibble, .-lcdNibble
 234              		.section	.text.LCD_Backlight,"ax",%progbits
 235              		.align	2
 236              		.p2align 4,,15
 237              		.global	LCD_Backlight
 238              		.thumb
 239              		.thumb_func
 240              		.type	LCD_Backlight, %function
 241              	LCD_Backlight:
 242              	.LFB121:
 243              		.loc 1 91 0
 244              		.cfi_startproc
 245              		@ args = 0, pretend = 0, frame = 8
 246              		@ frame_needed = 0, uses_anonymous_args = 0
 247              		@ link register save eliminated.
 248 0000 82B0     		sub	sp, sp, #8
 249              		.cfi_def_cfa_offset 8
 250 0002 0190     		str	r0, [sp, #4]
 251              		.loc 1 92 0
 252 0004 019B     		ldr	r3, [sp, #4]
 253 0006 002B     		cmp	r3, #0
 254 0008 04D0     		beq	.L17
 255              		.loc 1 93 0
 256 000a 054B     		ldr	r3, .L19
 257 000c 4FF40072 		mov	r2, #512
 258 0010 1A83     		strh	r2, [r3, #24]	@ movhi
 259 0012 03E0     		b	.L16
 260              	.L17:
 261              		.loc 1 95 0
 262 0014 024B     		ldr	r3, .L19
 263 0016 4FF40072 		mov	r2, #512
 264 001a 5A83     		strh	r2, [r3, #26]	@ movhi
 265              	.L16:
 266              		.loc 1 96 0
 267 001c 02B0     		add	sp, sp, #8
 268              		@ sp needed
 269 001e 7047     		bx	lr
 270              	.L20:
 271              		.align	2
 272              	.L19:
 273 0020 00100240 		.word	1073876992
 274              		.cfi_endproc
 275              	.LFE121:
 276              		.size	LCD_Backlight, .-LCD_Backlight
 277 0024 AFF30080 		.section	.text.LCD_ClearDisplay,"ax",%progbits
 277      AFF30080 
 277      AFF30080 
 278              		.align	2
 279              		.p2align 4,,15
 280              		.global	LCD_ClearDisplay
 281              		.thumb
 282              		.thumb_func
ARM GAS  c:\Tmp\ccI08m5i.s 			page 6


 283              		.type	LCD_ClearDisplay, %function
 284              	LCD_ClearDisplay:
 285              	.LFB122:
 286              		.loc 1 100 0
 287              		.cfi_startproc
 288              		@ args = 0, pretend = 0, frame = 0
 289              		@ frame_needed = 0, uses_anonymous_args = 0
 290 0000 08B5     		push	{r3, lr}
 291              		.cfi_def_cfa_offset 8
 292              		.cfi_offset 3, -8
 293              		.cfi_offset 14, -4
 294              		.loc 1 101 0
 295 0002 0020     		movs	r0, #0
 296 0004 0021     		movs	r1, #0
 297 0006 FFF7FEFF 		bl	lcdNibble
 298              		.loc 1 102 0
 299 000a 0120     		movs	r0, #1
 300 000c 0021     		movs	r1, #0
 301 000e FFF7FEFF 		bl	lcdNibble
 302              		.loc 1 104 0
 303 0012 0520     		movs	r0, #5
 304 0014 FFF7FEFF 		bl	chThdSleep
 305              		.loc 1 105 0
 306 0018 08BD     		pop	{r3, pc}
 307              		.cfi_endproc
 308              	.LFE122:
 309              		.size	LCD_ClearDisplay, .-LCD_ClearDisplay
 310 001a 00BFAFF3 		.section	.text.LCD_Config,"ax",%progbits
 310      0080
 311              		.align	2
 312              		.p2align 4,,15
 313              		.global	LCD_Config
 314              		.thumb
 315              		.thumb_func
 316              		.type	LCD_Config, %function
 317              	LCD_Config:
 318              	.LFB123:
 319              		.loc 1 112 0
 320              		.cfi_startproc
 321              		@ args = 0, pretend = 0, frame = 24
 322              		@ frame_needed = 0, uses_anonymous_args = 0
 323 0000 00B5     		push	{lr}
 324              		.cfi_def_cfa_offset 4
 325              		.cfi_offset 14, -4
 326 0002 87B0     		sub	sp, sp, #28
 327              		.cfi_def_cfa_offset 32
 328 0004 0390     		str	r0, [sp, #12]
 329 0006 0291     		str	r1, [sp, #8]
 330 0008 0192     		str	r2, [sp, #4]
 331              		.loc 1 113 0
 332 000a 0823     		movs	r3, #8
 333 000c 0593     		str	r3, [sp, #20]
 334              		.loc 1 114 0
 335 000e 039B     		ldr	r3, [sp, #12]
 336 0010 002B     		cmp	r3, #0
 337 0012 02D0     		beq	.L23
 338              		.loc 1 115 0
ARM GAS  c:\Tmp\ccI08m5i.s 			page 7


 339 0014 059B     		ldr	r3, [sp, #20]
 340 0016 0433     		adds	r3, r3, #4
 341 0018 0593     		str	r3, [sp, #20]
 342              	.L23:
 343              		.loc 1 116 0
 344 001a 029B     		ldr	r3, [sp, #8]
 345 001c 002B     		cmp	r3, #0
 346 001e 02D0     		beq	.L24
 347              		.loc 1 117 0
 348 0020 059B     		ldr	r3, [sp, #20]
 349 0022 0233     		adds	r3, r3, #2
 350 0024 0593     		str	r3, [sp, #20]
 351              	.L24:
 352              		.loc 1 118 0
 353 0026 019B     		ldr	r3, [sp, #4]
 354 0028 002B     		cmp	r3, #0
 355 002a 02D0     		beq	.L25
 356              		.loc 1 119 0
 357 002c 059B     		ldr	r3, [sp, #20]
 358 002e 0133     		adds	r3, r3, #1
 359 0030 0593     		str	r3, [sp, #20]
 360              	.L25:
 361              		.loc 1 121 0
 362 0032 0020     		movs	r0, #0
 363 0034 0021     		movs	r1, #0
 364 0036 FFF7FEFF 		bl	lcdNibble
 365              		.loc 1 122 0
 366 003a 0598     		ldr	r0, [sp, #20]
 367 003c 0021     		movs	r1, #0
 368 003e FFF7FEFF 		bl	lcdNibble
 369              		.loc 1 123 0
 370 0042 2820     		movs	r0, #40
 371 0044 FFF7FEFF 		bl	gptDelayUs
 372              		.loc 1 124 0
 373 0048 07B0     		add	sp, sp, #28
 374              		@ sp needed
 375 004a 5DF804FB 		ldr	pc, [sp], #4
 376              		.cfi_endproc
 377              	.LFE123:
 378              		.size	LCD_Config, .-LCD_Config
 379 004e 00BF     		.section	.text.LCD_GotoXY,"ax",%progbits
 380              		.align	2
 381              		.p2align 4,,15
 382              		.global	LCD_GotoXY
 383              		.thumb
 384              		.thumb_func
 385              		.type	LCD_GotoXY, %function
 386              	LCD_GotoXY:
 387              	.LFB124:
 388              		.loc 1 130 0
 389              		.cfi_startproc
 390              		@ args = 0, pretend = 0, frame = 16
 391              		@ frame_needed = 0, uses_anonymous_args = 0
 392 0000 00B5     		push	{lr}
 393              		.cfi_def_cfa_offset 4
 394              		.cfi_offset 14, -4
 395 0002 85B0     		sub	sp, sp, #20
ARM GAS  c:\Tmp\ccI08m5i.s 			page 8


 396              		.cfi_def_cfa_offset 24
 397 0004 0190     		str	r0, [sp, #4]
 398 0006 0091     		str	r1, [sp]
 399              		.loc 1 132 0
 400 0008 009B     		ldr	r3, [sp]
 401 000a 9A01     		lsls	r2, r3, #6
 402 000c 019B     		ldr	r3, [sp, #4]
 403 000e 1344     		add	r3, r3, r2
 404 0010 0393     		str	r3, [sp, #12]
 405              		.loc 1 138 0
 406 0012 039B     		ldr	r3, [sp, #12]
 407 0014 DBB2     		uxtb	r3, r3
 408 0016 1B09     		lsrs	r3, r3, #4
 409 0018 DBB2     		uxtb	r3, r3
 410 001a 0833     		adds	r3, r3, #8
 411 001c 8DF80B30 		strb	r3, [sp, #11]
 412              		.loc 1 139 0
 413 0020 039B     		ldr	r3, [sp, #12]
 414 0022 DBB2     		uxtb	r3, r3
 415 0024 03F00F03 		and	r3, r3, #15
 416 0028 8DF80A30 		strb	r3, [sp, #10]
 417              		.loc 1 142 0
 418 002c 9DF80B30 		ldrb	r3, [sp, #11]	@ zero_extendqisi2
 419 0030 1846     		mov	r0, r3
 420 0032 0021     		movs	r1, #0
 421 0034 FFF7FEFF 		bl	lcdNibble
 422              		.loc 1 143 0
 423 0038 9DF80A30 		ldrb	r3, [sp, #10]	@ zero_extendqisi2
 424 003c 1846     		mov	r0, r3
 425 003e 0021     		movs	r1, #0
 426 0040 FFF7FEFF 		bl	lcdNibble
 427              		.loc 1 146 0
 428 0044 2820     		movs	r0, #40
 429 0046 FFF7FEFF 		bl	gptDelayUs
 430              		.loc 1 148 0
 431 004a 05B0     		add	sp, sp, #20
 432              		@ sp needed
 433 004c 5DF804FB 		ldr	pc, [sp], #4
 434              		.cfi_endproc
 435              	.LFE124:
 436              		.size	LCD_GotoXY, .-LCD_GotoXY
 437              		.section	.text.LCD_SendChar,"ax",%progbits
 438              		.align	2
 439              		.p2align 4,,15
 440              		.global	LCD_SendChar
 441              		.thumb
 442              		.thumb_func
 443              		.type	LCD_SendChar, %function
 444              	LCD_SendChar:
 445              	.LFB125:
 446              		.loc 1 153 0
 447              		.cfi_startproc
 448              		@ args = 0, pretend = 0, frame = 16
 449              		@ frame_needed = 0, uses_anonymous_args = 0
 450 0000 00B5     		push	{lr}
 451              		.cfi_def_cfa_offset 4
 452              		.cfi_offset 14, -4
ARM GAS  c:\Tmp\ccI08m5i.s 			page 9


 453 0002 85B0     		sub	sp, sp, #20
 454              		.cfi_def_cfa_offset 24
 455 0004 0346     		mov	r3, r0
 456 0006 8DF80730 		strb	r3, [sp, #7]
 457              		.loc 1 158 0
 458 000a 9DF80730 		ldrb	r3, [sp, #7]	@ zero_extendqisi2
 459 000e 1B09     		lsrs	r3, r3, #4
 460 0010 8DF80F30 		strb	r3, [sp, #15]
 461              		.loc 1 159 0
 462 0014 9DF80730 		ldrb	r3, [sp, #7]
 463 0018 03F00F03 		and	r3, r3, #15
 464 001c 8DF80E30 		strb	r3, [sp, #14]
 465              		.loc 1 162 0
 466 0020 9DF80F30 		ldrb	r3, [sp, #15]	@ zero_extendqisi2
 467 0024 1846     		mov	r0, r3
 468 0026 0121     		movs	r1, #1
 469 0028 FFF7FEFF 		bl	lcdNibble
 470              		.loc 1 163 0
 471 002c 9DF80E30 		ldrb	r3, [sp, #14]	@ zero_extendqisi2
 472 0030 1846     		mov	r0, r3
 473 0032 0121     		movs	r1, #1
 474 0034 FFF7FEFF 		bl	lcdNibble
 475              		.loc 1 166 0
 476 0038 2820     		movs	r0, #40
 477 003a FFF7FEFF 		bl	gptDelayUs
 478              		.loc 1 169 0
 479 003e 05B0     		add	sp, sp, #20
 480              		@ sp needed
 481 0040 5DF804FB 		ldr	pc, [sp], #4
 482              		.cfi_endproc
 483              	.LFE125:
 484              		.size	LCD_SendChar, .-LCD_SendChar
 485 0044 AFF30080 		.section	.text.LCD_SendString,"ax",%progbits
 485      AFF30080 
 485      AFF30080 
 486              		.align	2
 487              		.p2align 4,,15
 488              		.global	LCD_SendString
 489              		.thumb
 490              		.thumb_func
 491              		.type	LCD_SendString, %function
 492              	LCD_SendString:
 493              	.LFB126:
 494              		.loc 1 174 0
 495              		.cfi_startproc
 496              		@ args = 0, pretend = 0, frame = 16
 497              		@ frame_needed = 0, uses_anonymous_args = 0
 498 0000 00B5     		push	{lr}
 499              		.cfi_def_cfa_offset 4
 500              		.cfi_offset 14, -4
 501 0002 85B0     		sub	sp, sp, #20
 502              		.cfi_def_cfa_offset 24
 503 0004 0190     		str	r0, [sp, #4]
 504              		.loc 1 175 0
 505 0006 019B     		ldr	r3, [sp, #4]
 506 0008 1B78     		ldrb	r3, [r3]
 507 000a 8DF80F30 		strb	r3, [sp, #15]
ARM GAS  c:\Tmp\ccI08m5i.s 			page 10


 508              		.loc 1 176 0
 509 000e 0BE0     		b	.L29
 510              	.L30:
 511              		.loc 1 178 0
 512 0010 9DF80F30 		ldrb	r3, [sp, #15]	@ zero_extendqisi2
 513 0014 1846     		mov	r0, r3
 514 0016 FFF7FEFF 		bl	LCD_SendChar
 515              		.loc 1 179 0
 516 001a 019B     		ldr	r3, [sp, #4]
 517 001c 0133     		adds	r3, r3, #1
 518 001e 0193     		str	r3, [sp, #4]
 519              		.loc 1 180 0
 520 0020 019B     		ldr	r3, [sp, #4]
 521 0022 1B78     		ldrb	r3, [r3]
 522 0024 8DF80F30 		strb	r3, [sp, #15]
 523              	.L29:
 524              		.loc 1 176 0 discriminator 1
 525 0028 9DF80F30 		ldrb	r3, [sp, #15]	@ zero_extendqisi2
 526 002c 002B     		cmp	r3, #0
 527 002e EFD1     		bne	.L30
 528              		.loc 1 184 0
 529 0030 05B0     		add	sp, sp, #20
 530              		@ sp needed
 531 0032 5DF804FB 		ldr	pc, [sp], #4
 532              		.cfi_endproc
 533              	.LFE126:
 534              		.size	LCD_SendString, .-LCD_SendString
 535 0036 00BFAFF3 		.section	.text.LCD_Init,"ax",%progbits
 535      0080AFF3 
 535      0080
 536              		.align	2
 537              		.p2align 4,,15
 538              		.global	LCD_Init
 539              		.thumb
 540              		.thumb_func
 541              		.type	LCD_Init, %function
 542              	LCD_Init:
 543              	.LFB127:
 544              		.loc 1 195 0
 545              		.cfi_startproc
 546              		@ args = 0, pretend = 0, frame = 0
 547              		@ frame_needed = 0, uses_anonymous_args = 0
 548 0000 08B5     		push	{r3, lr}
 549              		.cfi_def_cfa_offset 8
 550              		.cfi_offset 3, -8
 551              		.cfi_offset 14, -4
 552              		.loc 1 197 0
 553 0002 FFF7FEFF 		bl	lcdGPIOInit
 554              		.loc 1 200 0
 555 0006 3220     		movs	r0, #50
 556 0008 FFF7FEFF 		bl	chThdSleep
 557              		.loc 1 203 0
 558 000c 0320     		movs	r0, #3
 559 000e 0021     		movs	r1, #0
 560 0010 FFF7FEFF 		bl	lcdNibble
 561              		.loc 1 204 0
 562 0014 0A20     		movs	r0, #10
ARM GAS  c:\Tmp\ccI08m5i.s 			page 11


 563 0016 FFF7FEFF 		bl	chThdSleep
 564              		.loc 1 207 0
 565 001a 0320     		movs	r0, #3
 566 001c 0021     		movs	r1, #0
 567 001e FFF7FEFF 		bl	lcdNibble
 568              		.loc 1 210 0
 569 0022 4FF4FA70 		mov	r0, #500
 570 0026 FFF7FEFF 		bl	gptDelayUs
 571              		.loc 1 213 0
 572 002a 0320     		movs	r0, #3
 573 002c 0021     		movs	r1, #0
 574 002e FFF7FEFF 		bl	lcdNibble
 575              		.loc 1 216 0
 576 0032 0220     		movs	r0, #2
 577 0034 0021     		movs	r1, #0
 578 0036 FFF7FEFF 		bl	lcdNibble
 579              		.loc 1 219 0
 580 003a 0820     		movs	r0, #8
 581 003c 0021     		movs	r1, #0
 582 003e FFF7FEFF 		bl	lcdNibble
 583              		.loc 1 220 0
 584 0042 0220     		movs	r0, #2
 585 0044 0021     		movs	r1, #0
 586 0046 FFF7FEFF 		bl	lcdNibble
 587              		.loc 1 221 0
 588 004a 3220     		movs	r0, #50
 589 004c FFF7FEFF 		bl	gptDelayUs
 590              		.loc 1 224 0
 591 0050 0020     		movs	r0, #0
 592 0052 0021     		movs	r1, #0
 593 0054 FFF7FEFF 		bl	lcdNibble
 594              		.loc 1 225 0
 595 0058 0E20     		movs	r0, #14
 596 005a 0021     		movs	r1, #0
 597 005c FFF7FEFF 		bl	lcdNibble
 598              		.loc 1 226 0
 599 0060 3220     		movs	r0, #50
 600 0062 FFF7FEFF 		bl	gptDelayUs
 601              		.loc 1 229 0
 602 0066 0020     		movs	r0, #0
 603 0068 0021     		movs	r1, #0
 604 006a FFF7FEFF 		bl	lcdNibble
 605              		.loc 1 230 0
 606 006e 0120     		movs	r0, #1
 607 0070 0021     		movs	r1, #0
 608 0072 FFF7FEFF 		bl	lcdNibble
 609              		.loc 1 231 0
 610 0076 0520     		movs	r0, #5
 611 0078 FFF7FEFF 		bl	chThdSleep
 612              		.loc 1 234 0
 613 007c 0020     		movs	r0, #0
 614 007e 0021     		movs	r1, #0
 615 0080 FFF7FEFF 		bl	lcdNibble
 616              		.loc 1 235 0
 617 0084 0620     		movs	r0, #6
 618 0086 0021     		movs	r1, #0
 619 0088 FFF7FEFF 		bl	lcdNibble
ARM GAS  c:\Tmp\ccI08m5i.s 			page 12


 620              		.loc 1 236 0
 621 008c 3220     		movs	r0, #50
 622 008e FFF7FEFF 		bl	gptDelayUs
 623              		.loc 1 239 0
 624 0092 0820     		movs	r0, #8
 625 0094 0021     		movs	r1, #0
 626 0096 FFF7FEFF 		bl	lcdNibble
 627              		.loc 1 240 0
 628 009a 0020     		movs	r0, #0
 629 009c 0021     		movs	r1, #0
 630 009e FFF7FEFF 		bl	lcdNibble
 631              		.loc 1 241 0
 632 00a2 3220     		movs	r0, #50
 633 00a4 FFF7FEFF 		bl	gptDelayUs
 634              		.loc 1 252 0
 635 00a8 08BD     		pop	{r3, pc}
 636              		.cfi_endproc
 637              	.LFE127:
 638              		.size	LCD_Init, .-LCD_Init
 639 00aa 00BFAFF3 		.section	.text.LCD_CustomChar,"ax",%progbits
 639      0080
 640              		.align	2
 641              		.p2align 4,,15
 642              		.global	LCD_CustomChar
 643              		.thumb
 644              		.thumb_func
 645              		.type	LCD_CustomChar, %function
 646              	LCD_CustomChar:
 647              	.LFB128:
 648              		.loc 1 255 0
 649              		.cfi_startproc
 650              		@ args = 0, pretend = 0, frame = 24
 651              		@ frame_needed = 0, uses_anonymous_args = 0
 652 0000 00B5     		push	{lr}
 653              		.cfi_def_cfa_offset 4
 654              		.cfi_offset 14, -4
 655 0002 87B0     		sub	sp, sp, #28
 656              		.cfi_def_cfa_offset 32
 657 0004 0190     		str	r0, [sp, #4]
 658 0006 0091     		str	r1, [sp]
 659              		.loc 1 256 0
 660 0008 4023     		movs	r3, #64
 661 000a 0593     		str	r3, [sp, #20]
 662              		.loc 1 257 0
 663 000c 019B     		ldr	r3, [sp, #4]
 664 000e 03F00103 		and	r3, r3, #1
 665 0012 002B     		cmp	r3, #0
 666 0014 02D0     		beq	.L33
 667              		.loc 1 258 0
 668 0016 059B     		ldr	r3, [sp, #20]
 669 0018 0833     		adds	r3, r3, #8
 670 001a 0593     		str	r3, [sp, #20]
 671              	.L33:
 672              		.loc 1 259 0
 673 001c 019B     		ldr	r3, [sp, #4]
 674 001e DA0F     		lsrs	r2, r3, #31
 675 0020 1344     		add	r3, r3, r2
ARM GAS  c:\Tmp\ccI08m5i.s 			page 13


 676 0022 5B10     		asrs	r3, r3, #1
 677 0024 0193     		str	r3, [sp, #4]
 678              		.loc 1 260 0
 679 0026 019B     		ldr	r3, [sp, #4]
 680 0028 03F00103 		and	r3, r3, #1
 681 002c 002B     		cmp	r3, #0
 682 002e 02D0     		beq	.L34
 683              		.loc 1 261 0
 684 0030 059B     		ldr	r3, [sp, #20]
 685 0032 1033     		adds	r3, r3, #16
 686 0034 0593     		str	r3, [sp, #20]
 687              	.L34:
 688              		.loc 1 262 0
 689 0036 019B     		ldr	r3, [sp, #4]
 690 0038 DA0F     		lsrs	r2, r3, #31
 691 003a 1344     		add	r3, r3, r2
 692 003c 5B10     		asrs	r3, r3, #1
 693 003e 0193     		str	r3, [sp, #4]
 694              		.loc 1 263 0
 695 0040 019B     		ldr	r3, [sp, #4]
 696 0042 03F00103 		and	r3, r3, #1
 697 0046 002B     		cmp	r3, #0
 698 0048 02D0     		beq	.L35
 699              		.loc 1 264 0
 700 004a 059B     		ldr	r3, [sp, #20]
 701 004c 2033     		adds	r3, r3, #32
 702 004e 0593     		str	r3, [sp, #20]
 703              	.L35:
 704              		.loc 1 270 0
 705 0050 0023     		movs	r3, #0
 706 0052 0493     		str	r3, [sp, #16]
 707 0054 36E0     		b	.L36
 708              	.L37:
 709              		.loc 1 274 0 discriminator 2
 710 0056 059B     		ldr	r3, [sp, #20]
 711 0058 DBB2     		uxtb	r3, r3
 712 005a 1B09     		lsrs	r3, r3, #4
 713 005c 8DF80F30 		strb	r3, [sp, #15]
 714              		.loc 1 275 0 discriminator 2
 715 0060 059B     		ldr	r3, [sp, #20]
 716 0062 DBB2     		uxtb	r3, r3
 717 0064 03F00F03 		and	r3, r3, #15
 718 0068 8DF80E30 		strb	r3, [sp, #14]
 719              		.loc 1 278 0 discriminator 2
 720 006c 9DF80F30 		ldrb	r3, [sp, #15]	@ zero_extendqisi2
 721 0070 1846     		mov	r0, r3
 722 0072 0021     		movs	r1, #0
 723 0074 FFF7FEFF 		bl	lcdNibble
 724              		.loc 1 279 0 discriminator 2
 725 0078 9DF80E30 		ldrb	r3, [sp, #14]	@ zero_extendqisi2
 726 007c 1846     		mov	r0, r3
 727 007e 0021     		movs	r1, #0
 728 0080 FFF7FEFF 		bl	lcdNibble
 729              		.loc 1 281 0 discriminator 2
 730 0084 2820     		movs	r0, #40
 731 0086 FFF7FEFF 		bl	gptDelayUs
 732              		.loc 1 284 0 discriminator 2
ARM GAS  c:\Tmp\ccI08m5i.s 			page 14


 733 008a 049B     		ldr	r3, [sp, #16]
 734 008c 009A     		ldr	r2, [sp]
 735 008e 1344     		add	r3, r3, r2
 736 0090 1B78     		ldrb	r3, [r3]	@ zero_extendqisi2
 737 0092 1B09     		lsrs	r3, r3, #4
 738 0094 DBB2     		uxtb	r3, r3
 739 0096 1846     		mov	r0, r3
 740 0098 0121     		movs	r1, #1
 741 009a FFF7FEFF 		bl	lcdNibble
 742              		.loc 1 285 0 discriminator 2
 743 009e 049B     		ldr	r3, [sp, #16]
 744 00a0 009A     		ldr	r2, [sp]
 745 00a2 1344     		add	r3, r3, r2
 746 00a4 1B78     		ldrb	r3, [r3]	@ zero_extendqisi2
 747 00a6 03F00F03 		and	r3, r3, #15
 748 00aa 1846     		mov	r0, r3
 749 00ac 0121     		movs	r1, #1
 750 00ae FFF7FEFF 		bl	lcdNibble
 751              		.loc 1 287 0 discriminator 2
 752 00b2 2820     		movs	r0, #40
 753 00b4 FFF7FEFF 		bl	gptDelayUs
 754              		.loc 1 289 0 discriminator 2
 755 00b8 059B     		ldr	r3, [sp, #20]
 756 00ba 0133     		adds	r3, r3, #1
 757 00bc 0593     		str	r3, [sp, #20]
 758              		.loc 1 270 0 discriminator 2
 759 00be 049B     		ldr	r3, [sp, #16]
 760 00c0 0133     		adds	r3, r3, #1
 761 00c2 0493     		str	r3, [sp, #16]
 762              	.L36:
 763              		.loc 1 270 0 is_stmt 0 discriminator 1
 764 00c4 049B     		ldr	r3, [sp, #16]
 765 00c6 072B     		cmp	r3, #7
 766 00c8 C5DD     		ble	.L37
 767              		.loc 1 293 0 is_stmt 1
 768 00ca 0820     		movs	r0, #8
 769 00cc 0021     		movs	r1, #0
 770 00ce FFF7FEFF 		bl	lcdNibble
 771              		.loc 1 294 0
 772 00d2 0020     		movs	r0, #0
 773 00d4 0021     		movs	r1, #0
 774 00d6 FFF7FEFF 		bl	lcdNibble
 775              		.loc 1 295 0
 776 00da 0020     		movs	r0, #0
 777 00dc 0021     		movs	r1, #0
 778 00de FFF7FEFF 		bl	LCD_GotoXY
 779              		.loc 1 296 0
 780 00e2 07B0     		add	sp, sp, #28
 781              		@ sp needed
 782 00e4 5DF804FB 		ldr	pc, [sp], #4
 783              		.cfi_endproc
 784              	.LFE128:
 785              		.size	LCD_CustomChar, .-LCD_CustomChar
 786 00e8 AFF30080 		.text
 786      AFF30080 
 787              	.Letext0:
 788              		.file 2 "c:\\stm32v2\\gnu-arm\\arm-none-eabi\\include\\machine\\_default_types.h"
ARM GAS  c:\Tmp\ccI08m5i.s 			page 15


 789              		.file 3 "c:\\stm32v2\\gnu-arm\\arm-none-eabi\\include\\stdint.h"
 790              		.file 4 "C:/STM32v2/ChibiOS_2.6.2/os/hal/platforms/STM32/GPIOv2/pal_lld.h"
 791              		.file 5 "C:/STM32v2/ChibiOS_2.6.2/os/ports/common/ARMCMx/CMSIS/include/core_cm4.h"