ARM GAS  c:\Tmp\ccxCC9Z2.s 			page 1


   1              		.syntax unified
   2              		.cpu cortex-m4
   3              		.eabi_attribute 27, 3
   4              		.eabi_attribute 28, 1
   5              		.fpu fpv4-sp-d16
   6              		.eabi_attribute 20, 1
   7              		.eabi_attribute 21, 1
   8              		.eabi_attribute 23, 3
   9              		.eabi_attribute 24, 1
  10              		.eabi_attribute 25, 1
  11              		.eabi_attribute 26, 1
  12              		.eabi_attribute 30, 6
  13              		.eabi_attribute 34, 1
  14              		.eabi_attribute 18, 4
  15              		.thumb
  16              		.file	"main.c"
  17              		.text
  18              	.Ltext0:
  19              		.cfi_sections	.debug_frame
  20              		.global	i
  21              		.section	.bss.i,"aw",%nobits
  22              		.align	2
  23              		.type	i, %object
  24              		.size	i, 4
  25              	i:
  26 0000 00000000 		.space	4
  27              		.section	.text.ledBlink,"ax",%progbits
  28              		.align	2
  29              		.p2align 4,,15
  30              		.global	ledBlink
  31              		.thumb
  32              		.thumb_func
  33              		.type	ledBlink, %function
  34              	ledBlink:
  35              	.LFB118:
  36              		.file 1 "main.c"
  37              		.loc 1 22 0
  38              		.cfi_startproc
  39              		@ args = 0, pretend = 0, frame = 0
  40              		@ frame_needed = 0, uses_anonymous_args = 0
  41 0000 08B5     		push	{r3, lr}
  42              		.cfi_def_cfa_offset 8
  43              		.cfi_offset 3, -8
  44              		.cfi_offset 14, -4
  45              	.L2:
  46              		.loc 1 27 0 discriminator 1
  47 0002 074B     		ldr	r3, .L3
  48 0004 4FF48052 		mov	r2, #4096
  49 0008 1A83     		strh	r2, [r3, #24]	@ movhi
  50              		.loc 1 31 0 discriminator 1
  51 000a C820     		movs	r0, #200
  52 000c FFF7FEFF 		bl	chThdSleep
  53              		.loc 1 35 0 discriminator 1
  54 0010 034B     		ldr	r3, .L3
  55 0012 4FF48052 		mov	r2, #4096
  56 0016 5A83     		strh	r2, [r3, #26]	@ movhi
  57              		.loc 1 39 0 discriminator 1
ARM GAS  c:\Tmp\ccxCC9Z2.s 			page 2


  58 0018 C820     		movs	r0, #200
  59 001a FFF7FEFF 		bl	chThdSleep
  60              		.loc 1 40 0 discriminator 1
  61 001e F0E7     		b	.L2
  62              	.L4:
  63              		.align	2
  64              	.L3:
  65 0020 000C0240 		.word	1073875968
  66              		.cfi_endproc
  67              	.LFE118:
  68              		.size	ledBlink, .-ledBlink
  69 0024 AFF30080 		.section	.text.ledSequence,"ax",%progbits
  69      AFF30080 
  69      AFF30080 
  70              		.align	2
  71              		.p2align 4,,15
  72              		.global	ledSequence
  73              		.thumb
  74              		.thumb_func
  75              		.type	ledSequence, %function
  76              	ledSequence:
  77              	.LFB119:
  78              		.loc 1 45 0
  79              		.cfi_startproc
  80              		@ args = 0, pretend = 0, frame = 0
  81              		@ frame_needed = 0, uses_anonymous_args = 0
  82 0000 08B5     		push	{r3, lr}
  83              		.cfi_def_cfa_offset 8
  84              		.cfi_offset 3, -8
  85              		.cfi_offset 14, -4
  86              	.L18:
  87              		.loc 1 49 0
  88 0002 2C4B     		ldr	r3, .L19
  89 0004 1B68     		ldr	r3, [r3]
  90 0006 5A1C     		adds	r2, r3, #1
  91 0008 2A4B     		ldr	r3, .L19
  92 000a 1A60     		str	r2, [r3]
  93              		.loc 1 50 0
  94 000c 294B     		ldr	r3, .L19
  95 000e 1B68     		ldr	r3, [r3]
  96 0010 03F00303 		and	r3, r3, #3
  97 0014 032B     		cmp	r3, #3
  98 0016 1FD8     		bhi	.L6
  99 0018 01A2     		adr	r2, .L8
 100 001a 52F823F0 		ldr	pc, [r2, r3, lsl #2]
 101 001e 00BF     		.p2align 2
 102              	.L8:
 103 0020 31000000 		.word	.L7+1
 104 0024 3B000000 		.word	.L9+1
 105 0028 45000000 		.word	.L10+1
 106 002c 4F000000 		.word	.L11+1
 107              	.L7:
 108              		.loc 1 52 0
 109 0030 214B     		ldr	r3, .L19+4
 110 0032 4FF48052 		mov	r2, #4096
 111 0036 1A83     		strh	r2, [r3, #24]	@ movhi
 112              		.loc 1 53 0
ARM GAS  c:\Tmp\ccxCC9Z2.s 			page 3


 113 0038 0EE0     		b	.L6
 114              	.L9:
 115              		.loc 1 54 0
 116 003a 1F4B     		ldr	r3, .L19+4
 117 003c 4FF40052 		mov	r2, #8192
 118 0040 1A83     		strh	r2, [r3, #24]	@ movhi
 119              		.loc 1 55 0
 120 0042 09E0     		b	.L6
 121              	.L10:
 122              		.loc 1 56 0
 123 0044 1C4B     		ldr	r3, .L19+4
 124 0046 4FF48042 		mov	r2, #16384
 125 004a 1A83     		strh	r2, [r3, #24]	@ movhi
 126              		.loc 1 57 0
 127 004c 04E0     		b	.L6
 128              	.L11:
 129              		.loc 1 58 0
 130 004e 1A4B     		ldr	r3, .L19+4
 131 0050 4FF40042 		mov	r2, #32768
 132 0054 1A83     		strh	r2, [r3, #24]	@ movhi
 133              		.loc 1 59 0
 134 0056 00BF     		nop
 135              	.L6:
 136              		.loc 1 64 0
 137 0058 4FF4FA70 		mov	r0, #500
 138 005c FFF7FEFF 		bl	chThdSleep
 139              		.loc 1 67 0
 140 0060 144B     		ldr	r3, .L19
 141 0062 1B68     		ldr	r3, [r3]
 142 0064 03F00303 		and	r3, r3, #3
 143 0068 032B     		cmp	r3, #3
 144 006a 1FD8     		bhi	.L12
 145 006c 01A2     		adr	r2, .L14
 146 006e 52F823F0 		ldr	pc, [r2, r3, lsl #2]
 147 0072 00BF     		.p2align 2
 148              	.L14:
 149 0074 85000000 		.word	.L13+1
 150 0078 8F000000 		.word	.L15+1
 151 007c 99000000 		.word	.L16+1
 152 0080 A3000000 		.word	.L17+1
 153              	.L13:
 154              		.loc 1 69 0
 155 0084 0C4B     		ldr	r3, .L19+4
 156 0086 4FF48052 		mov	r2, #4096
 157 008a 5A83     		strh	r2, [r3, #26]	@ movhi
 158              		.loc 1 70 0
 159 008c 0EE0     		b	.L12
 160              	.L15:
 161              		.loc 1 71 0
 162 008e 0A4B     		ldr	r3, .L19+4
 163 0090 4FF40052 		mov	r2, #8192
 164 0094 5A83     		strh	r2, [r3, #26]	@ movhi
 165              		.loc 1 72 0
 166 0096 09E0     		b	.L12
 167              	.L16:
 168              		.loc 1 73 0
 169 0098 074B     		ldr	r3, .L19+4
ARM GAS  c:\Tmp\ccxCC9Z2.s 			page 4


 170 009a 4FF48042 		mov	r2, #16384
 171 009e 5A83     		strh	r2, [r3, #26]	@ movhi
 172              		.loc 1 74 0
 173 00a0 04E0     		b	.L12
 174              	.L17:
 175              		.loc 1 75 0
 176 00a2 054B     		ldr	r3, .L19+4
 177 00a4 4FF40042 		mov	r2, #32768
 178 00a8 5A83     		strh	r2, [r3, #26]	@ movhi
 179              		.loc 1 76 0
 180 00aa 00BF     		nop
 181              	.L12:
 182              		.loc 1 80 0
 183 00ac C820     		movs	r0, #200
 184 00ae FFF7FEFF 		bl	chThdSleep
 185              		.loc 1 81 0
 186 00b2 A6E7     		b	.L18
 187              	.L20:
 188              		.align	2
 189              	.L19:
 190 00b4 00000000 		.word	i
 191 00b8 000C0240 		.word	1073875968
 192              		.cfi_endproc
 193              	.LFE119:
 194              		.size	ledSequence, .-ledSequence
 195 00bc AFF30080 		.section	.text.main,"ax",%progbits
 196              		.align	2
 197              		.p2align 4,,15
 198              		.global	main
 199              		.thumb
 200              		.thumb_func
 201              		.type	main, %function
 202              	main:
 203              	.LFB120:
 204              		.loc 1 86 0
 205              		.cfi_startproc
 206              		@ args = 0, pretend = 0, frame = 0
 207              		@ frame_needed = 0, uses_anonymous_args = 0
 208 0000 08B5     		push	{r3, lr}
 209              		.cfi_def_cfa_offset 8
 210              		.cfi_offset 3, -8
 211              		.cfi_offset 14, -4
 212              		.loc 1 87 0
 213 0002 FFF7FEFF 		bl	baseInit
 214              		.loc 1 88 0
 215 0006 FFF7FEFF 		bl	initComms
 216              	.L22:
 217              		.loc 1 89 0 discriminator 1
 218 000a FEE7     		b	.L22
 219              		.cfi_endproc
 220              	.LFE120:
 221              		.size	main, .-main
 222 000c AFF30080 		.text
 223              	.Letext0:
 224              		.file 2 "c:\\stm32v2\\gnu-arm\\arm-none-eabi\\include\\machine\\_default_types.h"
 225              		.file 3 "c:\\stm32v2\\gnu-arm\\arm-none-eabi\\include\\stdint.h"
 226              		.file 4 "C:/STM32v2/ChibiOS_2.6.2/os/hal/platforms/STM32/GPIOv2/pal_lld.h"
ARM GAS  c:\Tmp\ccxCC9Z2.s 			page 5


 227              		.file 5 "C:/STM32v2/ChibiOS_2.6.2/os/ports/common/ARMCMx/CMSIS/include/core_cm4.h"