ARM GAS  c:\Tmp\ccX70oqo.s 			page 1


   1              		.syntax unified
   2              		.cpu cortex-m4
   3              		.eabi_attribute 27, 3
   4              		.eabi_attribute 28, 1
   5              		.fpu fpv4-sp-d16
   6              		.eabi_attribute 20, 1
   7              		.eabi_attribute 21, 1
   8              		.eabi_attribute 23, 3
   9              		.eabi_attribute 24, 1
  10              		.eabi_attribute 25, 1
  11              		.eabi_attribute 26, 1
  12              		.eabi_attribute 30, 6
  13              		.eabi_attribute 34, 1
  14              		.eabi_attribute 18, 4
  15              		.thumb
  16              		.file	"mutexes.c"
  17              		.text
  18              	.Ltext0:
  19              		.cfi_sections	.debug_frame
  20              		.global	semaf
  21              		.section	.bss.semaf,"aw",%nobits
  22              		.align	2
  23              		.type	semaf, %object
  24              		.size	semaf, 12
  25              	semaf:
  26 0000 00000000 		.space	12
  26      00000000 
  26      00000000 
  27              		.global	semaf2
  28              		.section	.bss.semaf2,"aw",%nobits
  29              		.align	2
  30              		.type	semaf2, %object
  31              		.size	semaf2, 12
  32              	semaf2:
  33 0000 00000000 		.space	12
  33      00000000 
  33      00000000 
  34              		.section	.bss.waSem,"aw",%nobits
  35              		.align	3
  36              		.type	waSem, %object
  37              		.size	waSem, 432
  38              	waSem:
  39 0000 00000000 		.space	432
  39      00000000 
  39      00000000 
  39      00000000 
  39      00000000 
  40              		.section	.bss.waSem2,"aw",%nobits
  41              		.align	3
  42              		.type	waSem2, %object
  43              		.size	waSem2, 432
  44              	waSem2:
  45 0000 00000000 		.space	432
  45      00000000 
  45      00000000 
  45      00000000 
  45      00000000 
ARM GAS  c:\Tmp\ccX70oqo.s 			page 2


  46              		.global	mutex_1
  47              		.section	.bss.mutex_1,"aw",%nobits
  48              		.align	2
  49              		.type	mutex_1, %object
  50              		.size	mutex_1, 16
  51              	mutex_1:
  52 0000 00000000 		.space	16
  52      00000000 
  52      00000000 
  52      00000000 
  53              		.section	.text.semaphoreExample,"ax",%progbits
  54              		.align	2
  55              		.p2align 4,,15
  56              		.global	semaphoreExample
  57              		.thumb
  58              		.thumb_func
  59              		.type	semaphoreExample, %function
  60              	semaphoreExample:
  61              	.LFB118:
  62              		.file 1 "mutexes.c"
  63              		.loc 1 32 0
  64              		.cfi_startproc
  65              		@ args = 0, pretend = 0, frame = 0
  66              		@ frame_needed = 0, uses_anonymous_args = 0
  67 0000 00B5     		push	{lr}
  68              		.cfi_def_cfa_offset 4
  69              		.cfi_offset 14, -4
  70 0002 83B0     		sub	sp, sp, #12
  71              		.cfi_def_cfa_offset 16
  72              		.loc 1 34 0
  73 0004 FFF7FEFF 		bl	baseInit
  74              		.loc 1 37 0
  75 0008 1648     		ldr	r0, .L4
  76 000a 0121     		movs	r1, #1
  77 000c FFF7FEFF 		bl	chSemInit
  78              		.loc 1 38 0
  79 0010 1548     		ldr	r0, .L4+4
  80 0012 0121     		movs	r1, #1
  81 0014 FFF7FEFF 		bl	chSemInit
  82              		.loc 1 41 0
  83 0018 0023     		movs	r3, #0
  84 001a 0093     		str	r3, [sp]
  85 001c 1348     		ldr	r0, .L4+8
  86 001e 4FF4D871 		mov	r1, #432
  87 0022 4122     		movs	r2, #65
  88 0024 124B     		ldr	r3, .L4+12
  89 0026 FFF7FEFF 		bl	chThdCreateStatic
  90              		.loc 1 42 0
  91 002a 0023     		movs	r3, #0
  92 002c 0093     		str	r3, [sp]
  93 002e 1148     		ldr	r0, .L4+16
  94 0030 4FF4D871 		mov	r1, #432
  95 0034 4122     		movs	r2, #65
  96 0036 104B     		ldr	r3, .L4+20
  97 0038 FFF7FEFF 		bl	chThdCreateStatic
  98              	.L3:
  99              		.loc 1 46 0
ARM GAS  c:\Tmp\ccX70oqo.s 			page 3


 100 003c 4FF49670 		mov	r0, #300
 101 0040 FFF7FEFF 		bl	chThdSleep
 102              	.LBB2:
 103              		.loc 1 47 0
 104 0044 2023     		movs	r3, #32
 105              	@ 47 "mutexes.c" 1
 106 0046 83F31188 		msr     BASEPRI, r3
 107              	@ 0 "" 2
 108              		.thumb
 109              	.LBE2:
 110 004a 064B     		ldr	r3, .L4
 111 004c 9B68     		ldr	r3, [r3, #8]
 112 004e 002B     		cmp	r3, #0
 113 0050 02DC     		bgt	.L2
 114              		.loc 1 47 0 is_stmt 0 discriminator 1
 115 0052 0448     		ldr	r0, .L4
 116 0054 FFF7FEFF 		bl	chSemSignalI
 117              	.L2:
 118              		.loc 1 47 0 discriminator 2
 119 0058 FFF7FEFF 		bl	chSchRescheduleS
 120              	.LBB3:
 121 005c 0023     		movs	r3, #0
 122              	@ 47 "mutexes.c" 1
 123 005e 83F31188 		msr     BASEPRI, r3
 124              	@ 0 "" 2
 125              		.thumb
 126              	.LBE3:
 127              		.loc 1 48 0 is_stmt 1 discriminator 2
 128 0062 EBE7     		b	.L3
 129              	.L5:
 130              		.align	2
 131              	.L4:
 132 0064 00000000 		.word	semaf
 133 0068 00000000 		.word	semaf2
 134 006c 00000000 		.word	waSem
 135 0070 00000000 		.word	thSem
 136 0074 00000000 		.word	waSem2
 137 0078 00000000 		.word	thSem2
 138              		.cfi_endproc
 139              	.LFE118:
 140              		.size	semaphoreExample, .-semaphoreExample
 141 007c AFF30080 		.section	.text.thSem,"ax",%progbits
 142              		.align	2
 143              		.p2align 4,,15
 144              		.thumb
 145              		.thumb_func
 146              		.type	thSem, %function
 147              	thSem:
 148              	.LFB119:
 149              		.loc 1 55 0
 150              		.cfi_startproc
 151              		@ args = 0, pretend = 0, frame = 16
 152              		@ frame_needed = 0, uses_anonymous_args = 0
 153 0000 00B5     		push	{lr}
 154              		.cfi_def_cfa_offset 4
 155              		.cfi_offset 14, -4
 156 0002 85B0     		sub	sp, sp, #20
ARM GAS  c:\Tmp\ccX70oqo.s 			page 4


 157              		.cfi_def_cfa_offset 24
 158 0004 0190     		str	r0, [sp, #4]
 159              		.loc 1 56 0
 160 0006 0023     		movs	r3, #0
 161 0008 0393     		str	r3, [sp, #12]
 162              	.L10:
 163              		.loc 1 59 0
 164 000a 1448     		ldr	r0, .L11
 165 000c FFF7FEFF 		bl	chSemWait
 166              		.loc 1 60 0
 167 0010 134B     		ldr	r3, .L11+4
 168 0012 134A     		ldr	r2, .L11+4
 169 0014 5269     		ldr	r2, [r2, #20]
 170 0016 82F40052 		eor	r2, r2, #8192
 171 001a 5A61     		str	r2, [r3, #20]
 172              		.loc 1 61 0
 173 001c 039B     		ldr	r3, [sp, #12]
 174 001e 5A1C     		adds	r2, r3, #1
 175 0020 104B     		ldr	r3, .L11+8
 176 0022 1340     		ands	r3, r3, r2
 177 0024 002B     		cmp	r3, #0
 178 0026 03DA     		bge	.L7
 179 0028 013B     		subs	r3, r3, #1
 180 002a 63F00103 		orn	r3, r3, #1
 181 002e 0133     		adds	r3, r3, #1
 182              	.L7:
 183 0030 0393     		str	r3, [sp, #12]
 184              		.loc 1 62 0
 185 0032 039B     		ldr	r3, [sp, #12]
 186 0034 002B     		cmp	r3, #0
 187 0036 0FD1     		bne	.L8
 188              	.LBB4:
 189              		.loc 1 63 0
 190 0038 2023     		movs	r3, #32
 191              	@ 63 "mutexes.c" 1
 192 003a 83F31188 		msr     BASEPRI, r3
 193              	@ 0 "" 2
 194              		.thumb
 195              	.LBE4:
 196 003e 0A4B     		ldr	r3, .L11+12
 197 0040 9B68     		ldr	r3, [r3, #8]
 198 0042 002B     		cmp	r3, #0
 199 0044 02DC     		bgt	.L9
 200              		.loc 1 63 0 is_stmt 0 discriminator 1
 201 0046 0848     		ldr	r0, .L11+12
 202 0048 FFF7FEFF 		bl	chSemSignalI
 203              	.L9:
 204              		.loc 1 63 0 discriminator 2
 205 004c FFF7FEFF 		bl	chSchRescheduleS
 206              	.LBB5:
 207 0050 0023     		movs	r3, #0
 208              	@ 63 "mutexes.c" 1
 209 0052 83F31188 		msr     BASEPRI, r3
 210              	@ 0 "" 2
 211              		.thumb
 212              	.LBE5:
 213              		.loc 1 65 0 is_stmt 1 discriminator 2
ARM GAS  c:\Tmp\ccX70oqo.s 			page 5


 214 0056 D8E7     		b	.L10
 215              	.L8:
 216              		.loc 1 65 0 is_stmt 0
 217 0058 D7E7     		b	.L10
 218              	.L12:
 219 005a 00BF     		.align	2
 220              	.L11:
 221 005c 00000000 		.word	semaf
 222 0060 000C0240 		.word	1073875968
 223 0064 01000080 		.word	-2147483647
 224 0068 00000000 		.word	semaf2
 225              		.cfi_endproc
 226              	.LFE119:
 227              		.size	thSem, .-thSem
 228 006c AFF30080 		.section	.text.thSem2,"ax",%progbits
 229              		.align	2
 230              		.p2align 4,,15
 231              		.thumb
 232              		.thumb_func
 233              		.type	thSem2, %function
 234              	thSem2:
 235              	.LFB120:
 236              		.loc 1 71 0 is_stmt 1
 237              		.cfi_startproc
 238              		@ args = 0, pretend = 0, frame = 8
 239              		@ frame_needed = 0, uses_anonymous_args = 0
 240 0000 00B5     		push	{lr}
 241              		.cfi_def_cfa_offset 4
 242              		.cfi_offset 14, -4
 243 0002 83B0     		sub	sp, sp, #12
 244              		.cfi_def_cfa_offset 16
 245 0004 0190     		str	r0, [sp, #4]
 246              	.L14:
 247              		.loc 1 74 0 discriminator 1
 248 0006 0548     		ldr	r0, .L15
 249 0008 FFF7FEFF 		bl	chSemWait
 250              		.loc 1 75 0 discriminator 1
 251 000c 044B     		ldr	r3, .L15+4
 252 000e 044A     		ldr	r2, .L15+4
 253 0010 5269     		ldr	r2, [r2, #20]
 254 0012 82F40042 		eor	r2, r2, #32768
 255 0016 5A61     		str	r2, [r3, #20]
 256              		.loc 1 76 0 discriminator 1
 257 0018 F5E7     		b	.L14
 258              	.L16:
 259 001a 00BF     		.align	2
 260              	.L15:
 261 001c 00000000 		.word	semaf2
 262 0020 000C0240 		.word	1073875968
 263              		.cfi_endproc
 264              	.LFE120:
 265              		.size	thSem2, .-thSem2
 266 0024 AFF30080 		.section	.bss.waThEM,"aw",%nobits
 266      AFF30080 
 266      AFF30080 
 267              		.align	3
 268              		.type	waThEM, %object
ARM GAS  c:\Tmp\ccX70oqo.s 			page 6


 269              		.size	waThEM, 432
 270              	waThEM:
 271 0000 00000000 		.space	432
 271      00000000 
 271      00000000 
 271      00000000 
 271      00000000 
 272              		.section	.text.mutexExample,"ax",%progbits
 273              		.align	2
 274              		.p2align 4,,15
 275              		.global	mutexExample
 276              		.thumb
 277              		.thumb_func
 278              		.type	mutexExample, %function
 279              	mutexExample:
 280              	.LFB121:
 281              		.loc 1 93 0
 282              		.cfi_startproc
 283              		@ args = 0, pretend = 0, frame = 16
 284              		@ frame_needed = 0, uses_anonymous_args = 0
 285 0000 00B5     		push	{lr}
 286              		.cfi_def_cfa_offset 4
 287              		.cfi_offset 14, -4
 288 0002 87B0     		sub	sp, sp, #28
 289              		.cfi_def_cfa_offset 32
 290              		.loc 1 97 0
 291 0004 FFF7FEFF 		bl	baseInit
 292              		.loc 1 100 0
 293 0008 FFF7FEFF 		bl	LCD_Init
 294              		.loc 1 103 0
 295 000c FFF7FEFF 		bl	LCD_ClearDisplay
 296              		.loc 1 104 0
 297 0010 0020     		movs	r0, #0
 298 0012 FFF7FEFF 		bl	LCD_Backlight
 299              		.loc 1 107 0
 300 0016 1E48     		ldr	r0, .L24
 301 0018 FFF7FEFF 		bl	chMtxInit
 302              		.loc 1 110 0
 303 001c 0023     		movs	r3, #0
 304 001e 0093     		str	r3, [sp]
 305 0020 1C48     		ldr	r0, .L24+4
 306 0022 4FF4D871 		mov	r1, #432
 307 0026 4022     		movs	r2, #64
 308 0028 1B4B     		ldr	r3, .L24+8
 309 002a FFF7FEFF 		bl	chThdCreateStatic
 310              		.loc 1 113 0
 311 002e 3023     		movs	r3, #48
 312 0030 0393     		str	r3, [sp, #12]
 313              	.L23:
 314              		.loc 1 118 0
 315 0032 0023     		movs	r3, #0
 316 0034 0493     		str	r3, [sp, #16]
 317 0036 1DE0     		b	.L18
 318              	.L21:
 319              		.loc 1 119 0
 320 0038 0023     		movs	r3, #0
 321 003a 0593     		str	r3, [sp, #20]
ARM GAS  c:\Tmp\ccX70oqo.s 			page 7


 322 003c 14E0     		b	.L19
 323              	.L20:
 324              		.loc 1 122 0 discriminator 2
 325 003e 1448     		ldr	r0, .L24
 326 0040 FFF7FEFF 		bl	chMtxLock
 327              		.loc 1 123 0 discriminator 2
 328 0044 0598     		ldr	r0, [sp, #20]
 329 0046 0021     		movs	r1, #0
 330 0048 FFF7FEFF 		bl	LCD_GotoXY
 331              		.loc 1 124 0 discriminator 2
 332 004c 039B     		ldr	r3, [sp, #12]
 333 004e DBB2     		uxtb	r3, r3
 334 0050 1846     		mov	r0, r3
 335 0052 FFF7FEFF 		bl	LCD_SendChar
 336              		.loc 1 125 0 discriminator 2
 337 0056 FFF7FEFF 		bl	chMtxUnlock
 338              		.loc 1 126 0 discriminator 2
 339 005a 44F26820 		movw	r0, #17000
 340 005e FFF7FEFF 		bl	gptDelayUs
 341              		.loc 1 119 0 discriminator 2
 342 0062 059B     		ldr	r3, [sp, #20]
 343 0064 0133     		adds	r3, r3, #1
 344 0066 0593     		str	r3, [sp, #20]
 345              	.L19:
 346              		.loc 1 119 0 is_stmt 0 discriminator 1
 347 0068 059B     		ldr	r3, [sp, #20]
 348 006a 0F2B     		cmp	r3, #15
 349 006c E7DD     		ble	.L20
 350              		.loc 1 118 0 is_stmt 1
 351 006e 049B     		ldr	r3, [sp, #16]
 352 0070 0133     		adds	r3, r3, #1
 353 0072 0493     		str	r3, [sp, #16]
 354              	.L18:
 355              		.loc 1 118 0 is_stmt 0 discriminator 1
 356 0074 049B     		ldr	r3, [sp, #16]
 357 0076 132B     		cmp	r3, #19
 358 0078 DEDD     		ble	.L21
 359              		.loc 1 128 0 is_stmt 1
 360 007a 039B     		ldr	r3, [sp, #12]
 361 007c 0133     		adds	r3, r3, #1
 362 007e 0393     		str	r3, [sp, #12]
 363 0080 039B     		ldr	r3, [sp, #12]
 364 0082 392B     		cmp	r3, #57
 365 0084 02DD     		ble	.L22
 366              		.loc 1 128 0 is_stmt 0 discriminator 1
 367 0086 3023     		movs	r3, #48
 368 0088 0393     		str	r3, [sp, #12]
 369              		.loc 1 129 0 is_stmt 1 discriminator 1
 370 008a D2E7     		b	.L23
 371              	.L22:
 372              		.loc 1 129 0 is_stmt 0
 373 008c D1E7     		b	.L23
 374              	.L25:
 375 008e 00BF     		.align	2
 376              	.L24:
 377 0090 00000000 		.word	mutex_1
 378 0094 00000000 		.word	waThEM
ARM GAS  c:\Tmp\ccX70oqo.s 			page 8


 379 0098 00000000 		.word	thMtx
 380              		.cfi_endproc
 381              	.LFE121:
 382              		.size	mutexExample, .-mutexExample
 383 009c AFF30080 		.section	.text.thMtx,"ax",%progbits
 384              		.align	2
 385              		.p2align 4,,15
 386              		.thumb
 387              		.thumb_func
 388              		.type	thMtx, %function
 389              	thMtx:
 390              	.LFB122:
 391              		.loc 1 135 0 is_stmt 1
 392              		.cfi_startproc
 393              		@ args = 0, pretend = 0, frame = 24
 394              		@ frame_needed = 0, uses_anonymous_args = 0
 395 0000 00B5     		push	{lr}
 396              		.cfi_def_cfa_offset 4
 397              		.cfi_offset 14, -4
 398 0002 87B0     		sub	sp, sp, #28
 399              		.cfi_def_cfa_offset 32
 400 0004 0190     		str	r0, [sp, #4]
 401              		.loc 1 139 0
 402 0006 4123     		movs	r3, #65
 403 0008 0393     		str	r3, [sp, #12]
 404              	.L32:
 405              		.loc 1 144 0
 406 000a 0023     		movs	r3, #0
 407 000c 0493     		str	r3, [sp, #16]
 408 000e 1DE0     		b	.L27
 409              	.L30:
 410              		.loc 1 145 0
 411 0010 0023     		movs	r3, #0
 412 0012 0593     		str	r3, [sp, #20]
 413 0014 14E0     		b	.L28
 414              	.L29:
 415              		.loc 1 148 0 discriminator 2
 416 0016 1448     		ldr	r0, .L33
 417 0018 FFF7FEFF 		bl	chMtxLock
 418              		.loc 1 149 0 discriminator 2
 419 001c 0598     		ldr	r0, [sp, #20]
 420 001e 0121     		movs	r1, #1
 421 0020 FFF7FEFF 		bl	LCD_GotoXY
 422              		.loc 1 150 0 discriminator 2
 423 0024 039B     		ldr	r3, [sp, #12]
 424 0026 DBB2     		uxtb	r3, r3
 425 0028 1846     		mov	r0, r3
 426 002a FFF7FEFF 		bl	LCD_SendChar
 427              		.loc 1 151 0 discriminator 2
 428 002e FFF7FEFF 		bl	chMtxUnlock
 429              		.loc 1 152 0 discriminator 2
 430 0032 42F21070 		movw	r0, #10000
 431 0036 FFF7FEFF 		bl	gptDelayUs2
 432              		.loc 1 145 0 discriminator 2
 433 003a 059B     		ldr	r3, [sp, #20]
 434 003c 0133     		adds	r3, r3, #1
 435 003e 0593     		str	r3, [sp, #20]
ARM GAS  c:\Tmp\ccX70oqo.s 			page 9


 436              	.L28:
 437              		.loc 1 145 0 is_stmt 0 discriminator 1
 438 0040 059B     		ldr	r3, [sp, #20]
 439 0042 0F2B     		cmp	r3, #15
 440 0044 E7DD     		ble	.L29
 441              		.loc 1 144 0 is_stmt 1
 442 0046 049B     		ldr	r3, [sp, #16]
 443 0048 0133     		adds	r3, r3, #1
 444 004a 0493     		str	r3, [sp, #16]
 445              	.L27:
 446              		.loc 1 144 0 is_stmt 0 discriminator 1
 447 004c 049B     		ldr	r3, [sp, #16]
 448 004e 132B     		cmp	r3, #19
 449 0050 DEDD     		ble	.L30
 450              		.loc 1 154 0 is_stmt 1
 451 0052 039B     		ldr	r3, [sp, #12]
 452 0054 0133     		adds	r3, r3, #1
 453 0056 0393     		str	r3, [sp, #12]
 454 0058 039B     		ldr	r3, [sp, #12]
 455 005a 5A2B     		cmp	r3, #90
 456 005c 02DD     		ble	.L31
 457              		.loc 1 154 0 is_stmt 0 discriminator 1
 458 005e 4123     		movs	r3, #65
 459 0060 0393     		str	r3, [sp, #12]
 460              		.loc 1 155 0 is_stmt 1 discriminator 1
 461 0062 D2E7     		b	.L32
 462              	.L31:
 463              		.loc 1 155 0 is_stmt 0
 464 0064 D1E7     		b	.L32
 465              	.L34:
 466 0066 00BF     		.align	2
 467              	.L33:
 468 0068 00000000 		.word	mutex_1
 469              		.cfi_endproc
 470              	.LFE122:
 471              		.size	thMtx, .-thMtx
 472 006c AFF30080 		.text
 473              	.Letext0:
 474              		.file 2 "c:\\stm32v2\\gnu-arm\\arm-none-eabi\\include\\machine\\_default_types.h"
 475              		.file 3 "c:\\stm32v2\\gnu-arm\\arm-none-eabi\\include\\stdint.h"
 476              		.file 4 "C:/STM32v2/ChibiOS_2.6.2/os/ports/GCC/ARMCMx/chtypes.h"
 477              		.file 5 "C:/STM32v2/ChibiOS_2.6.2/os/kernel/include/chlists.h"
 478              		.file 6 "C:/STM32v2/ChibiOS_2.6.2/os/kernel/include/chthreads.h"
 479              		.file 7 "C:/STM32v2/ChibiOS_2.6.2/os/ports/GCC/ARMCMx/chcore_v7m.h"
 480              		.file 8 "C:/STM32v2/ChibiOS_2.6.2/os/kernel/include/chsem.h"
 481              		.file 9 "C:/STM32v2/ChibiOS_2.6.2/os/kernel/include/chbsem.h"
 482              		.file 10 "C:/STM32v2/ChibiOS_2.6.2/os/kernel/include/chmtx.h"
 483              		.file 11 "C:/STM32v2/ChibiOS_2.6.2/os/hal/platforms/STM32/GPIOv2/pal_lld.h"
 484              		.file 12 "C:/STM32v2/ChibiOS_2.6.2/os/ports/common/ARMCMx/CMSIS/include/core_cm4.h"