ARM GAS  c:\Tmp\ccQQNayZ.s 			page 1


   1              		.syntax unified
   2              		.cpu cortex-m4
   3              		.eabi_attribute 27, 3
   4              		.eabi_attribute 28, 1
   5              		.fpu fpv4-sp-d16
   6              		.eabi_attribute 20, 1
   7              		.eabi_attribute 21, 1
   8              		.eabi_attribute 23, 3
   9              		.eabi_attribute 24, 1
  10              		.eabi_attribute 25, 1
  11              		.eabi_attribute 26, 1
  12              		.eabi_attribute 30, 6
  13              		.eabi_attribute 34, 1
  14              		.eabi_attribute 18, 4
  15              		.thumb
  16              		.file	"process.c"
  17              		.text
  18              	.Ltext0:
  19              		.cfi_sections	.debug_frame
  20              		.section	.bss.waChild1,"aw",%nobits
  21              		.align	3
  22              		.type	waChild1, %object
  23              		.size	waChild1, 432
  24              	waChild1:
  25 0000 00000000 		.space	432
  25      00000000 
  25      00000000 
  25      00000000 
  25      00000000 
  26              		.section	.bss.waChild2,"aw",%nobits
  27              		.align	3
  28              		.type	waChild2, %object
  29              		.size	waChild2, 432
  30              	waChild2:
  31 0000 00000000 		.space	432
  31      00000000 
  31      00000000 
  31      00000000 
  31      00000000 
  32              		.section	.bss.waChild3,"aw",%nobits
  33              		.align	3
  34              		.type	waChild3, %object
  35              		.size	waChild3, 432
  36              	waChild3:
  37 0000 00000000 		.space	432
  37      00000000 
  37      00000000 
  37      00000000 
  37      00000000 
  38              		.section	.text.test4threads,"ax",%progbits
  39              		.align	2
  40              		.p2align 4,,15
  41              		.global	test4threads
  42              		.thumb
  43              		.thumb_func
  44              		.type	test4threads, %function
  45              	test4threads:
ARM GAS  c:\Tmp\ccQQNayZ.s 			page 2


  46              	.LFB118:
  47              		.file 1 "process.c"
  48              		.loc 1 33 0
  49              		.cfi_startproc
  50              		@ args = 0, pretend = 0, frame = 24
  51              		@ frame_needed = 0, uses_anonymous_args = 0
  52 0000 00B5     		push	{lr}
  53              		.cfi_def_cfa_offset 4
  54              		.cfi_offset 14, -4
  55 0002 89B0     		sub	sp, sp, #36
  56              		.cfi_def_cfa_offset 40
  57              		.loc 1 35 0
  58 0004 FFF7FEFF 		bl	baseInit
  59              		.loc 1 39 0
  60 0008 0123     		movs	r3, #1
  61 000a 0493     		str	r3, [sp, #16]
  62              		.loc 1 40 0
  63 000c 0223     		movs	r3, #2
  64 000e 0393     		str	r3, [sp, #12]
  65              		.loc 1 41 0
  66 0010 0323     		movs	r3, #3
  67 0012 0293     		str	r3, [sp, #8]
  68              		.loc 1 42 0
  69 0014 04AB     		add	r3, sp, #16
  70 0016 0793     		str	r3, [sp, #28]
  71              		.loc 1 43 0
  72 0018 03AB     		add	r3, sp, #12
  73 001a 0693     		str	r3, [sp, #24]
  74              		.loc 1 44 0
  75 001c 02AB     		add	r3, sp, #8
  76 001e 0593     		str	r3, [sp, #20]
  77              		.loc 1 47 0
  78 0020 079B     		ldr	r3, [sp, #28]
  79 0022 0093     		str	r3, [sp]
  80 0024 1348     		ldr	r0, .L3
  81 0026 4FF4D871 		mov	r1, #432
  82 002a 4022     		movs	r2, #64
  83 002c 124B     		ldr	r3, .L3+4
  84 002e FFF7FEFF 		bl	chThdCreateStatic
  85              		.loc 1 48 0
  86 0032 069B     		ldr	r3, [sp, #24]
  87 0034 0093     		str	r3, [sp]
  88 0036 1148     		ldr	r0, .L3+8
  89 0038 4FF4D871 		mov	r1, #432
  90 003c 4022     		movs	r2, #64
  91 003e 0E4B     		ldr	r3, .L3+4
  92 0040 FFF7FEFF 		bl	chThdCreateStatic
  93              		.loc 1 49 0
  94 0044 059B     		ldr	r3, [sp, #20]
  95 0046 0093     		str	r3, [sp]
  96 0048 0D48     		ldr	r0, .L3+12
  97 004a 4FF4D871 		mov	r1, #432
  98 004e 4022     		movs	r2, #64
  99 0050 094B     		ldr	r3, .L3+4
 100 0052 FFF7FEFF 		bl	chThdCreateStatic
 101              	.L2:
 102              		.loc 1 54 0 discriminator 1
ARM GAS  c:\Tmp\ccQQNayZ.s 			page 3


 103 0056 0B4B     		ldr	r3, .L3+16
 104 0058 4FF40042 		mov	r2, #32768
 105 005c 1A83     		strh	r2, [r3, #24]	@ movhi
 106              		.loc 1 57 0 discriminator 1
 107 005e 0120     		movs	r0, #1
 108 0060 FFF7FEFF 		bl	busyWait
 109              		.loc 1 60 0 discriminator 1
 110 0064 074B     		ldr	r3, .L3+16
 111 0066 4FF40042 		mov	r2, #32768
 112 006a 5A83     		strh	r2, [r3, #26]	@ movhi
 113              		.loc 1 63 0 discriminator 1
 114 006c 0120     		movs	r0, #1
 115 006e FFF7FEFF 		bl	busyWait
 116              		.loc 1 64 0 discriminator 1
 117 0072 F0E7     		b	.L2
 118              	.L4:
 119              		.align	2
 120              	.L3:
 121 0074 00000000 		.word	waChild1
 122 0078 00000000 		.word	thChild
 123 007c 00000000 		.word	waChild2
 124 0080 00000000 		.word	waChild3
 125 0084 000C0240 		.word	1073875968
 126              		.cfi_endproc
 127              	.LFE118:
 128              		.size	test4threads, .-test4threads
 129 0088 AFF30080 		.section	.text.thChild,"ax",%progbits
 129      AFF30080 
 130              		.align	2
 131              		.p2align 4,,15
 132              		.thumb
 133              		.thumb_func
 134              		.type	thChild, %function
 135              	thChild:
 136              	.LFB119:
 137              		.loc 1 70 0
 138              		.cfi_startproc
 139              		@ args = 0, pretend = 0, frame = 8
 140              		@ frame_needed = 0, uses_anonymous_args = 0
 141 0000 00B5     		push	{lr}
 142              		.cfi_def_cfa_offset 4
 143              		.cfi_offset 14, -4
 144 0002 83B0     		sub	sp, sp, #12
 145              		.cfi_def_cfa_offset 16
 146 0004 0190     		str	r0, [sp, #4]
 147              		.loc 1 71 0
 148 0006 019B     		ldr	r3, [sp, #4]
 149 0008 1B68     		ldr	r3, [r3]
 150 000a 012B     		cmp	r3, #1
 151 000c 0ED1     		bne	.L6
 152              	.L7:
 153              		.loc 1 75 0 discriminator 1
 154 000e 1D4B     		ldr	r3, .L13
 155 0010 4FF40052 		mov	r2, #8192
 156 0014 1A83     		strh	r2, [r3, #24]	@ movhi
 157              		.loc 1 78 0 discriminator 1
 158 0016 0220     		movs	r0, #2
ARM GAS  c:\Tmp\ccQQNayZ.s 			page 4


 159 0018 FFF7FEFF 		bl	busyWait
 160              		.loc 1 81 0 discriminator 1
 161 001c 194B     		ldr	r3, .L13
 162 001e 4FF40052 		mov	r2, #8192
 163 0022 5A83     		strh	r2, [r3, #26]	@ movhi
 164              		.loc 1 84 0 discriminator 1
 165 0024 0220     		movs	r0, #2
 166 0026 FFF7FEFF 		bl	busyWait
 167              		.loc 1 85 0 discriminator 1
 168 002a F0E7     		b	.L7
 169              	.L6:
 170              		.loc 1 86 0
 171 002c 019B     		ldr	r3, [sp, #4]
 172 002e 1B68     		ldr	r3, [r3]
 173 0030 022B     		cmp	r3, #2
 174 0032 0ED1     		bne	.L8
 175              	.L9:
 176              		.loc 1 90 0 discriminator 1
 177 0034 134B     		ldr	r3, .L13
 178 0036 4FF48052 		mov	r2, #4096
 179 003a 1A83     		strh	r2, [r3, #24]	@ movhi
 180              		.loc 1 93 0 discriminator 1
 181 003c 0420     		movs	r0, #4
 182 003e FFF7FEFF 		bl	busyWait
 183              		.loc 1 96 0 discriminator 1
 184 0042 104B     		ldr	r3, .L13
 185 0044 4FF48052 		mov	r2, #4096
 186 0048 5A83     		strh	r2, [r3, #26]	@ movhi
 187              		.loc 1 99 0 discriminator 1
 188 004a 0420     		movs	r0, #4
 189 004c FFF7FEFF 		bl	busyWait
 190              		.loc 1 100 0 discriminator 1
 191 0050 F0E7     		b	.L9
 192              	.L8:
 193              		.loc 1 101 0
 194 0052 019B     		ldr	r3, [sp, #4]
 195 0054 1B68     		ldr	r3, [r3]
 196 0056 032B     		cmp	r3, #3
 197 0058 0ED1     		bne	.L10
 198              	.L11:
 199              		.loc 1 105 0 discriminator 1
 200 005a 0A4B     		ldr	r3, .L13
 201 005c 4FF48042 		mov	r2, #16384
 202 0060 1A83     		strh	r2, [r3, #24]	@ movhi
 203              		.loc 1 108 0 discriminator 1
 204 0062 0820     		movs	r0, #8
 205 0064 FFF7FEFF 		bl	busyWait
 206              		.loc 1 111 0 discriminator 1
 207 0068 064B     		ldr	r3, .L13
 208 006a 4FF48042 		mov	r2, #16384
 209 006e 5A83     		strh	r2, [r3, #26]	@ movhi
 210              		.loc 1 114 0 discriminator 1
 211 0070 0820     		movs	r0, #8
 212 0072 FFF7FEFF 		bl	busyWait
 213              		.loc 1 115 0 discriminator 1
 214 0076 F0E7     		b	.L11
 215              	.L10:
ARM GAS  c:\Tmp\ccQQNayZ.s 			page 5


 216              		.loc 1 117 0
 217 0078 0023     		movs	r3, #0
 218              		.loc 1 118 0
 219 007a 1846     		mov	r0, r3
 220 007c 03B0     		add	sp, sp, #12
 221              		@ sp needed
 222 007e 5DF804FB 		ldr	pc, [sp], #4
 223              	.L14:
 224 0082 00BF     		.align	2
 225              	.L13:
 226 0084 000C0240 		.word	1073875968
 227              		.cfi_endproc
 228              	.LFE119:
 229              		.size	thChild, .-thChild
 230 0088 AFF30080 		.section	.text.busyWait,"ax",%progbits
 230      AFF30080 
 231              		.align	2
 232              		.p2align 4,,15
 233              		.global	busyWait
 234              		.thumb
 235              		.thumb_func
 236              		.type	busyWait, %function
 237              	busyWait:
 238              	.LFB120:
 239              		.loc 1 123 0
 240              		.cfi_startproc
 241              		@ args = 0, pretend = 0, frame = 16
 242              		@ frame_needed = 0, uses_anonymous_args = 0
 243              		@ link register save eliminated.
 244 0000 84B0     		sub	sp, sp, #16
 245              		.cfi_def_cfa_offset 16
 246 0002 0190     		str	r0, [sp, #4]
 247              		.loc 1 125 0
 248 0004 0023     		movs	r3, #0
 249 0006 0293     		str	r3, [sp, #8]
 250              		.loc 1 126 0
 251 0008 0023     		movs	r3, #0
 252 000a 0393     		str	r3, [sp, #12]
 253 000c 09E0     		b	.L16
 254              	.L17:
 255              		.loc 1 127 0 discriminator 2
 256 000e 029B     		ldr	r3, [sp, #8]
 257 0010 9A1C     		adds	r2, r3, #2
 258 0012 084B     		ldr	r3, .L18
 259 0014 A3FB0213 		umull	r1, r3, r3, r2
 260 0018 5B08     		lsrs	r3, r3, #1
 261 001a 0293     		str	r3, [sp, #8]
 262              		.loc 1 126 0 discriminator 2
 263 001c 039B     		ldr	r3, [sp, #12]
 264 001e 0133     		adds	r3, r3, #1
 265 0020 0393     		str	r3, [sp, #12]
 266              	.L16:
 267              		.loc 1 126 0 is_stmt 0 discriminator 1
 268 0022 019B     		ldr	r3, [sp, #4]
 269 0024 044A     		ldr	r2, .L18+4
 270 0026 02FB03F2 		mul	r2, r2, r3
 271 002a 039B     		ldr	r3, [sp, #12]
ARM GAS  c:\Tmp\ccQQNayZ.s 			page 6


 272 002c 9A42     		cmp	r2, r3
 273 002e EED8     		bhi	.L17
 274              		.loc 1 128 0 is_stmt 1
 275 0030 04B0     		add	sp, sp, #16
 276              		@ sp needed
 277 0032 7047     		bx	lr
 278              	.L19:
 279              		.align	2
 280              	.L18:
 281 0034 ABAAAAAA 		.word	-1431655765
 282 0038 40420F00 		.word	1000000
 283              		.cfi_endproc
 284              	.LFE120:
 285              		.size	busyWait, .-busyWait
 286 003c AFF30080 		.text
 287              	.Letext0:
 288              		.file 2 "c:\\stm32v2\\gnu-arm\\arm-none-eabi\\include\\machine\\_default_types.h"
 289              		.file 3 "c:\\stm32v2\\gnu-arm\\arm-none-eabi\\include\\stdint.h"
 290              		.file 4 "C:/STM32v2/ChibiOS_2.6.2/os/ports/GCC/ARMCMx/chtypes.h"
 291              		.file 5 "C:/STM32v2/ChibiOS_2.6.2/os/ports/GCC/ARMCMx/chcore_v7m.h"
 292              		.file 6 "C:/STM32v2/ChibiOS_2.6.2/os/hal/platforms/STM32/GPIOv2/pal_lld.h"
 293              		.file 7 "C:/STM32v2/ChibiOS_2.6.2/os/ports/common/ARMCMx/CMSIS/include/core_cm4.h"